
../rt-thread-4.0.2/bsp/mb-core/rtthread.elf:     file format elf64-littleriscv


Disassembly of section .start:

0000000040000000 <_start>:
    40000000:	0180006f          	j	40000018 <g_wake_up+0x10>
    40000004:	deadbeef          	jal	t4,3ffdb5ee <__STACKSIZE__+0x3ffda5ee>

0000000040000008 <g_wake_up>:
    40000008:	0001                	nop
	...
    40000016:	0000                	unimp
    40000018:	30405073          	csrwi	mie,0
    4000001c:	34405073          	csrwi	mip,0
    40000020:	00016297          	auipc	t0,0x16
    40000024:	5f028293          	addi	t0,t0,1520 # 40016610 <trap_entry>
    40000028:	30529073          	csrw	mtvec,t0
    4000002c:	00000093          	li	ra,0
    40000030:	00000113          	li	sp,0
    40000034:	00000193          	li	gp,0
    40000038:	00000213          	li	tp,0
    4000003c:	00000293          	li	t0,0
    40000040:	00000313          	li	t1,0
    40000044:	00000393          	li	t2,0
    40000048:	00000413          	li	s0,0
    4000004c:	00000493          	li	s1,0
    40000050:	00000513          	li	a0,0
    40000054:	00000593          	li	a1,0
    40000058:	00000613          	li	a2,0
    4000005c:	00000693          	li	a3,0
    40000060:	00000713          	li	a4,0
    40000064:	00000793          	li	a5,0
    40000068:	00000813          	li	a6,0
    4000006c:	00000893          	li	a7,0
    40000070:	00000913          	li	s2,0
    40000074:	00000993          	li	s3,0
    40000078:	00000a13          	li	s4,0
    4000007c:	00000a93          	li	s5,0
    40000080:	00000b13          	li	s6,0
    40000084:	00000b93          	li	s7,0
    40000088:	00000c13          	li	s8,0
    4000008c:	00000c93          	li	s9,0
    40000090:	00000d13          	li	s10,0
    40000094:	00000d93          	li	s11,0
    40000098:	00000e13          	li	t3,0
    4000009c:	00000e93          	li	t4,0
    400000a0:	00000f13          	li	t5,0
    400000a4:	00000f93          	li	t6,0
    400000a8:	000062b7          	lui	t0,0x6
    400000ac:	0082829b          	addiw	t0,t0,8
    400000b0:	3002b073          	csrc	mstatus,t0
    400000b4:	0002b197          	auipc	gp,0x2b
    400000b8:	a6418193          	addi	gp,gp,-1436 # 4002ab18 <__global_pointer$>
    400000bc:	86818113          	addi	sp,gp,-1944 # 4002a380 <__stack_start__>
    400000c0:	000013b7          	lui	t2,0x1
    400000c4:	00710133          	add	sp,sp,t2
    400000c8:	1cd0f06f          	j	4000fa94 <primary_cpu_entry>

00000000400000cc <secondary_cpu_entry>:
    400000cc:	0000006f          	j	400000cc <secondary_cpu_entry>

Disassembly of section .text:

00000000400000d0 <rt_hw_interrupt_disable>:
    400000d0:	30047573          	csrrci	a0,mstatus,8
    400000d4:	00008067          	ret

00000000400000d8 <rt_hw_interrupt_enable>:
    400000d8:	30051073          	csrw	mstatus,a0
    400000dc:	00008067          	ret

00000000400000e0 <rt_hw_context_switch_to>:
    400000e0:	00053103          	ld	sp,0(a0)
    400000e4:	01013503          	ld	a0,16(sp)
    400000e8:	30051073          	csrw	mstatus,a0
    400000ec:	0a00006f          	j	4000018c <rt_hw_context_switch_exit>

00000000400000f0 <rt_hw_context_switch>:
    400000f0:	f0010113          	addi	sp,sp,-256
    400000f4:	00253023          	sd	sp,0(a0)
    400000f8:	00113023          	sd	ra,0(sp)
    400000fc:	00113423          	sd	ra,8(sp)
    40000100:	30002573          	csrr	a0,mstatus
    40000104:	00857513          	andi	a0,a0,8
    40000108:	00050463          	beqz	a0,40000110 <save_mpie>
    4000010c:	08000513          	li	a0,128

0000000040000110 <save_mpie>:
    40000110:	00a13823          	sd	a0,16(sp)
    40000114:	02413023          	sd	tp,32(sp)
    40000118:	02513423          	sd	t0,40(sp)
    4000011c:	02613823          	sd	t1,48(sp)
    40000120:	02713c23          	sd	t2,56(sp)
    40000124:	04813023          	sd	s0,64(sp)
    40000128:	04913423          	sd	s1,72(sp)
    4000012c:	04a13823          	sd	a0,80(sp)
    40000130:	04b13c23          	sd	a1,88(sp)
    40000134:	06c13023          	sd	a2,96(sp)
    40000138:	06d13423          	sd	a3,104(sp)
    4000013c:	06e13823          	sd	a4,112(sp)
    40000140:	06f13c23          	sd	a5,120(sp)
    40000144:	09013023          	sd	a6,128(sp)
    40000148:	09113423          	sd	a7,136(sp)
    4000014c:	09213823          	sd	s2,144(sp)
    40000150:	09313c23          	sd	s3,152(sp)
    40000154:	0b413023          	sd	s4,160(sp)
    40000158:	0b513423          	sd	s5,168(sp)
    4000015c:	0b613823          	sd	s6,176(sp)
    40000160:	0b713c23          	sd	s7,184(sp)
    40000164:	0d813023          	sd	s8,192(sp)
    40000168:	0d913423          	sd	s9,200(sp)
    4000016c:	0da13823          	sd	s10,208(sp)
    40000170:	0db13c23          	sd	s11,216(sp)
    40000174:	0fc13023          	sd	t3,224(sp)
    40000178:	0fd13423          	sd	t4,232(sp)
    4000017c:	0fe13823          	sd	t5,240(sp)
    40000180:	0ff13c23          	sd	t6,248(sp)
    40000184:	0005b103          	ld	sp,0(a1)
    40000188:	0040006f          	j	4000018c <rt_hw_context_switch_exit>

000000004000018c <rt_hw_context_switch_exit>:
    4000018c:	00013503          	ld	a0,0(sp)
    40000190:	34151073          	csrw	mepc,a0
    40000194:	00813083          	ld	ra,8(sp)
    40000198:	000022b7          	lui	t0,0x2
    4000019c:	8002829b          	addiw	t0,t0,-2048
    400001a0:	30029073          	csrw	mstatus,t0
    400001a4:	01013503          	ld	a0,16(sp)
    400001a8:	30052073          	csrs	mstatus,a0
    400001ac:	02013203          	ld	tp,32(sp)
    400001b0:	02813283          	ld	t0,40(sp)
    400001b4:	03013303          	ld	t1,48(sp)
    400001b8:	03813383          	ld	t2,56(sp)
    400001bc:	04013403          	ld	s0,64(sp)
    400001c0:	04813483          	ld	s1,72(sp)
    400001c4:	05013503          	ld	a0,80(sp)
    400001c8:	05813583          	ld	a1,88(sp)
    400001cc:	06013603          	ld	a2,96(sp)
    400001d0:	06813683          	ld	a3,104(sp)
    400001d4:	07013703          	ld	a4,112(sp)
    400001d8:	07813783          	ld	a5,120(sp)
    400001dc:	08013803          	ld	a6,128(sp)
    400001e0:	08813883          	ld	a7,136(sp)
    400001e4:	09013903          	ld	s2,144(sp)
    400001e8:	09813983          	ld	s3,152(sp)
    400001ec:	0a013a03          	ld	s4,160(sp)
    400001f0:	0a813a83          	ld	s5,168(sp)
    400001f4:	0b013b03          	ld	s6,176(sp)
    400001f8:	0b813b83          	ld	s7,184(sp)
    400001fc:	0c013c03          	ld	s8,192(sp)
    40000200:	0c813c83          	ld	s9,200(sp)
    40000204:	0d013d03          	ld	s10,208(sp)
    40000208:	0d813d83          	ld	s11,216(sp)
    4000020c:	0e013e03          	ld	t3,224(sp)
    40000210:	0e813e83          	ld	t4,232(sp)
    40000214:	0f013f03          	ld	t5,240(sp)
    40000218:	0f813f83          	ld	t6,248(sp)
    4000021c:	10010113          	addi	sp,sp,256
    40000220:	30200073          	mret

0000000040000224 <atoi>:
    40000224:	ff010113          	addi	sp,sp,-16
    40000228:	00a00613          	li	a2,10
    4000022c:	00000593          	li	a1,0
    40000230:	00113423          	sd	ra,8(sp)
    40000234:	001010ef          	jal	ra,40001a34 <strtol>
    40000238:	00813083          	ld	ra,8(sp)
    4000023c:	0005051b          	sext.w	a0,a0
    40000240:	01010113          	addi	sp,sp,16
    40000244:	00008067          	ret

0000000040000248 <_atoi_r>:
    40000248:	ff010113          	addi	sp,sp,-16
    4000024c:	00a00693          	li	a3,10
    40000250:	00000613          	li	a2,0
    40000254:	00113423          	sd	ra,8(sp)
    40000258:	7bc010ef          	jal	ra,40001a14 <_strtol_r>
    4000025c:	00813083          	ld	ra,8(sp)
    40000260:	0005051b          	sext.w	a0,a0
    40000264:	01010113          	addi	sp,sp,16
    40000268:	00008067          	ret

000000004000026c <_fclose_r>:
    4000026c:	fe010113          	addi	sp,sp,-32
    40000270:	00113c23          	sd	ra,24(sp)
    40000274:	00813823          	sd	s0,16(sp)
    40000278:	00913423          	sd	s1,8(sp)
    4000027c:	01213023          	sd	s2,0(sp)
    40000280:	02058063          	beqz	a1,400002a0 <_fclose_r+0x34>
    40000284:	00050493          	mv	s1,a0
    40000288:	00058413          	mv	s0,a1
    4000028c:	00050663          	beqz	a0,40000298 <_fclose_r+0x2c>
    40000290:	05052783          	lw	a5,80(a0)
    40000294:	0a078c63          	beqz	a5,4000034c <_fclose_r+0xe0>
    40000298:	01041783          	lh	a5,16(s0)
    4000029c:	02079263          	bnez	a5,400002c0 <_fclose_r+0x54>
    400002a0:	01813083          	ld	ra,24(sp)
    400002a4:	01013403          	ld	s0,16(sp)
    400002a8:	00000913          	li	s2,0
    400002ac:	00090513          	mv	a0,s2
    400002b0:	00813483          	ld	s1,8(sp)
    400002b4:	00013903          	ld	s2,0(sp)
    400002b8:	02010113          	addi	sp,sp,32
    400002bc:	00008067          	ret
    400002c0:	00040593          	mv	a1,s0
    400002c4:	00048513          	mv	a0,s1
    400002c8:	0c8000ef          	jal	ra,40000390 <__sflush_r>
    400002cc:	05043783          	ld	a5,80(s0)
    400002d0:	00050913          	mv	s2,a0
    400002d4:	00078a63          	beqz	a5,400002e8 <_fclose_r+0x7c>
    400002d8:	03043583          	ld	a1,48(s0)
    400002dc:	00048513          	mv	a0,s1
    400002e0:	000780e7          	jalr	a5
    400002e4:	06054c63          	bltz	a0,4000035c <_fclose_r+0xf0>
    400002e8:	01045783          	lhu	a5,16(s0)
    400002ec:	0807f793          	andi	a5,a5,128
    400002f0:	06079e63          	bnez	a5,4000036c <_fclose_r+0x100>
    400002f4:	05843583          	ld	a1,88(s0)
    400002f8:	00058c63          	beqz	a1,40000310 <_fclose_r+0xa4>
    400002fc:	07440793          	addi	a5,s0,116
    40000300:	00f58663          	beq	a1,a5,4000030c <_fclose_r+0xa0>
    40000304:	00048513          	mv	a0,s1
    40000308:	4e4250ef          	jal	ra,400257ec <_free_r>
    4000030c:	04043c23          	sd	zero,88(s0)
    40000310:	07843583          	ld	a1,120(s0)
    40000314:	00058863          	beqz	a1,40000324 <_fclose_r+0xb8>
    40000318:	00048513          	mv	a0,s1
    4000031c:	4d0250ef          	jal	ra,400257ec <_free_r>
    40000320:	06043c23          	sd	zero,120(s0)
    40000324:	6fc000ef          	jal	ra,40000a20 <__sfp_lock_acquire>
    40000328:	00041823          	sh	zero,16(s0)
    4000032c:	6f8000ef          	jal	ra,40000a24 <__sfp_lock_release>
    40000330:	01813083          	ld	ra,24(sp)
    40000334:	01013403          	ld	s0,16(sp)
    40000338:	00090513          	mv	a0,s2
    4000033c:	00813483          	ld	s1,8(sp)
    40000340:	00013903          	ld	s2,0(sp)
    40000344:	02010113          	addi	sp,sp,32
    40000348:	00008067          	ret
    4000034c:	6c4000ef          	jal	ra,40000a10 <__sinit>
    40000350:	01041783          	lh	a5,16(s0)
    40000354:	f40786e3          	beqz	a5,400002a0 <_fclose_r+0x34>
    40000358:	f69ff06f          	j	400002c0 <_fclose_r+0x54>
    4000035c:	01045783          	lhu	a5,16(s0)
    40000360:	fff00913          	li	s2,-1
    40000364:	0807f793          	andi	a5,a5,128
    40000368:	f80786e3          	beqz	a5,400002f4 <_fclose_r+0x88>
    4000036c:	01843583          	ld	a1,24(s0)
    40000370:	00048513          	mv	a0,s1
    40000374:	478250ef          	jal	ra,400257ec <_free_r>
    40000378:	f7dff06f          	j	400002f4 <_fclose_r+0x88>

000000004000037c <fclose>:
    4000037c:	0002a797          	auipc	a5,0x2a
    40000380:	f9c78793          	addi	a5,a5,-100 # 4002a318 <_impure_ptr>
    40000384:	00050593          	mv	a1,a0
    40000388:	0007b503          	ld	a0,0(a5)
    4000038c:	ee1ff06f          	j	4000026c <_fclose_r>

0000000040000390 <__sflush_r>:
    40000390:	01059783          	lh	a5,16(a1)
    40000394:	fd010113          	addi	sp,sp,-48
    40000398:	02813023          	sd	s0,32(sp)
    4000039c:	03079713          	slli	a4,a5,0x30
    400003a0:	03075713          	srli	a4,a4,0x30
    400003a4:	01313423          	sd	s3,8(sp)
    400003a8:	02113423          	sd	ra,40(sp)
    400003ac:	00913c23          	sd	s1,24(sp)
    400003b0:	01213823          	sd	s2,16(sp)
    400003b4:	00877693          	andi	a3,a4,8
    400003b8:	00058413          	mv	s0,a1
    400003bc:	00050993          	mv	s3,a0
    400003c0:	10069a63          	bnez	a3,400004d4 <__sflush_r+0x144>
    400003c4:	00001737          	lui	a4,0x1
    400003c8:	80070713          	addi	a4,a4,-2048 # 800 <__STACKSIZE__-0x800>
    400003cc:	0085a683          	lw	a3,8(a1)
    400003d0:	00e7e7b3          	or	a5,a5,a4
    400003d4:	00f59823          	sh	a5,16(a1)
    400003d8:	18d05063          	blez	a3,40000558 <__sflush_r+0x1c8>
    400003dc:	04843703          	ld	a4,72(s0)
    400003e0:	0c070a63          	beqz	a4,400004b4 <__sflush_r+0x124>
    400003e4:	03079793          	slli	a5,a5,0x30
    400003e8:	0307d793          	srli	a5,a5,0x30
    400003ec:	0009a483          	lw	s1,0(s3)
    400003f0:	03379693          	slli	a3,a5,0x33
    400003f4:	0009a023          	sw	zero,0(s3)
    400003f8:	03043583          	ld	a1,48(s0)
    400003fc:	1606c463          	bltz	a3,40000564 <__sflush_r+0x1d4>
    40000400:	00000613          	li	a2,0
    40000404:	00100693          	li	a3,1
    40000408:	00098513          	mv	a0,s3
    4000040c:	000700e7          	jalr	a4
    40000410:	fff00793          	li	a5,-1
    40000414:	00050613          	mv	a2,a0
    40000418:	18f50663          	beq	a0,a5,400005a4 <__sflush_r+0x214>
    4000041c:	01045783          	lhu	a5,16(s0)
    40000420:	04843703          	ld	a4,72(s0)
    40000424:	03043583          	ld	a1,48(s0)
    40000428:	0047f793          	andi	a5,a5,4
    4000042c:	00078e63          	beqz	a5,40000448 <__sflush_r+0xb8>
    40000430:	00842683          	lw	a3,8(s0)
    40000434:	05843783          	ld	a5,88(s0)
    40000438:	40d60633          	sub	a2,a2,a3
    4000043c:	00078663          	beqz	a5,40000448 <__sflush_r+0xb8>
    40000440:	07042783          	lw	a5,112(s0)
    40000444:	40f60633          	sub	a2,a2,a5
    40000448:	00000693          	li	a3,0
    4000044c:	00098513          	mv	a0,s3
    40000450:	000700e7          	jalr	a4
    40000454:	fff00793          	li	a5,-1
    40000458:	10f51a63          	bne	a0,a5,4000056c <__sflush_r+0x1dc>
    4000045c:	0009a703          	lw	a4,0(s3)
    40000460:	01041783          	lh	a5,16(s0)
    40000464:	16070263          	beqz	a4,400005c8 <__sflush_r+0x238>
    40000468:	01d00693          	li	a3,29
    4000046c:	00d70663          	beq	a4,a3,40000478 <__sflush_r+0xe8>
    40000470:	01600693          	li	a3,22
    40000474:	16d71463          	bne	a4,a3,400005dc <__sflush_r+0x24c>
    40000478:	01843683          	ld	a3,24(s0)
    4000047c:	fffff737          	lui	a4,0xfffff
    40000480:	7ff70713          	addi	a4,a4,2047 # fffffffffffff7ff <_heap_begin+0xffffffffbff3f7ff>
    40000484:	00e7f7b3          	and	a5,a5,a4
    40000488:	00f41823          	sh	a5,16(s0)
    4000048c:	00042423          	sw	zero,8(s0)
    40000490:	00d43023          	sd	a3,0(s0)
    40000494:	05843583          	ld	a1,88(s0)
    40000498:	0099a023          	sw	s1,0(s3)
    4000049c:	00058c63          	beqz	a1,400004b4 <__sflush_r+0x124>
    400004a0:	07440793          	addi	a5,s0,116
    400004a4:	00f58663          	beq	a1,a5,400004b0 <__sflush_r+0x120>
    400004a8:	00098513          	mv	a0,s3
    400004ac:	340250ef          	jal	ra,400257ec <_free_r>
    400004b0:	04043c23          	sd	zero,88(s0)
    400004b4:	00000513          	li	a0,0
    400004b8:	02813083          	ld	ra,40(sp)
    400004bc:	02013403          	ld	s0,32(sp)
    400004c0:	01813483          	ld	s1,24(sp)
    400004c4:	01013903          	ld	s2,16(sp)
    400004c8:	00813983          	ld	s3,8(sp)
    400004cc:	03010113          	addi	sp,sp,48
    400004d0:	00008067          	ret
    400004d4:	0185b903          	ld	s2,24(a1)
    400004d8:	fc090ee3          	beqz	s2,400004b4 <__sflush_r+0x124>
    400004dc:	0005b483          	ld	s1,0(a1)
    400004e0:	00377713          	andi	a4,a4,3
    400004e4:	0125b023          	sd	s2,0(a1)
    400004e8:	412484bb          	subw	s1,s1,s2
    400004ec:	00000793          	li	a5,0
    400004f0:	00071463          	bnez	a4,400004f8 <__sflush_r+0x168>
    400004f4:	0205a783          	lw	a5,32(a1)
    400004f8:	00f42623          	sw	a5,12(s0)
    400004fc:	00904863          	bgtz	s1,4000050c <__sflush_r+0x17c>
    40000500:	fb5ff06f          	j	400004b4 <__sflush_r+0x124>
    40000504:	00a90933          	add	s2,s2,a0
    40000508:	fa9056e3          	blez	s1,400004b4 <__sflush_r+0x124>
    4000050c:	04043783          	ld	a5,64(s0)
    40000510:	03043583          	ld	a1,48(s0)
    40000514:	00048693          	mv	a3,s1
    40000518:	00090613          	mv	a2,s2
    4000051c:	00098513          	mv	a0,s3
    40000520:	000780e7          	jalr	a5
    40000524:	40a484bb          	subw	s1,s1,a0
    40000528:	fca04ee3          	bgtz	a0,40000504 <__sflush_r+0x174>
    4000052c:	01045783          	lhu	a5,16(s0)
    40000530:	02813083          	ld	ra,40(sp)
    40000534:	01813483          	ld	s1,24(sp)
    40000538:	0407e793          	ori	a5,a5,64
    4000053c:	00f41823          	sh	a5,16(s0)
    40000540:	02013403          	ld	s0,32(sp)
    40000544:	01013903          	ld	s2,16(sp)
    40000548:	00813983          	ld	s3,8(sp)
    4000054c:	fff00513          	li	a0,-1
    40000550:	03010113          	addi	sp,sp,48
    40000554:	00008067          	ret
    40000558:	0705a703          	lw	a4,112(a1)
    4000055c:	e8e040e3          	bgtz	a4,400003dc <__sflush_r+0x4c>
    40000560:	f55ff06f          	j	400004b4 <__sflush_r+0x124>
    40000564:	09043603          	ld	a2,144(s0)
    40000568:	ec1ff06f          	j	40000428 <__sflush_r+0x98>
    4000056c:	01045783          	lhu	a5,16(s0)
    40000570:	fffff737          	lui	a4,0xfffff
    40000574:	7ff70713          	addi	a4,a4,2047 # fffffffffffff7ff <_heap_begin+0xffffffffbff3f7ff>
    40000578:	00e7f7b3          	and	a5,a5,a4
    4000057c:	01843683          	ld	a3,24(s0)
    40000580:	0107979b          	slliw	a5,a5,0x10
    40000584:	4107d79b          	sraiw	a5,a5,0x10
    40000588:	00f41823          	sh	a5,16(s0)
    4000058c:	00042423          	sw	zero,8(s0)
    40000590:	00d43023          	sd	a3,0(s0)
    40000594:	03379713          	slli	a4,a5,0x33
    40000598:	ee075ee3          	bgez	a4,40000494 <__sflush_r+0x104>
    4000059c:	08a43823          	sd	a0,144(s0)
    400005a0:	ef5ff06f          	j	40000494 <__sflush_r+0x104>
    400005a4:	0009a783          	lw	a5,0(s3)
    400005a8:	e6078ae3          	beqz	a5,4000041c <__sflush_r+0x8c>
    400005ac:	01d00713          	li	a4,29
    400005b0:	00e78663          	beq	a5,a4,400005bc <__sflush_r+0x22c>
    400005b4:	01600713          	li	a4,22
    400005b8:	f6e79ae3          	bne	a5,a4,4000052c <__sflush_r+0x19c>
    400005bc:	0099a023          	sw	s1,0(s3)
    400005c0:	00000513          	li	a0,0
    400005c4:	ef5ff06f          	j	400004b8 <__sflush_r+0x128>
    400005c8:	fffff737          	lui	a4,0xfffff
    400005cc:	7ff70713          	addi	a4,a4,2047 # fffffffffffff7ff <_heap_begin+0xffffffffbff3f7ff>
    400005d0:	01843683          	ld	a3,24(s0)
    400005d4:	00e7f7b3          	and	a5,a5,a4
    400005d8:	fb1ff06f          	j	40000588 <__sflush_r+0x1f8>
    400005dc:	0407e793          	ori	a5,a5,64
    400005e0:	00f41823          	sh	a5,16(s0)
    400005e4:	fff00513          	li	a0,-1
    400005e8:	ed1ff06f          	j	400004b8 <__sflush_r+0x128>

00000000400005ec <_fflush_r>:
    400005ec:	fe010113          	addi	sp,sp,-32
    400005f0:	00813823          	sd	s0,16(sp)
    400005f4:	00113c23          	sd	ra,24(sp)
    400005f8:	00050413          	mv	s0,a0
    400005fc:	00050663          	beqz	a0,40000608 <_fflush_r+0x1c>
    40000600:	05052783          	lw	a5,80(a0)
    40000604:	02078063          	beqz	a5,40000624 <_fflush_r+0x38>
    40000608:	01059783          	lh	a5,16(a1)
    4000060c:	02079663          	bnez	a5,40000638 <_fflush_r+0x4c>
    40000610:	01813083          	ld	ra,24(sp)
    40000614:	01013403          	ld	s0,16(sp)
    40000618:	00000513          	li	a0,0
    4000061c:	02010113          	addi	sp,sp,32
    40000620:	00008067          	ret
    40000624:	00b13423          	sd	a1,8(sp)
    40000628:	3e8000ef          	jal	ra,40000a10 <__sinit>
    4000062c:	00813583          	ld	a1,8(sp)
    40000630:	01059783          	lh	a5,16(a1)
    40000634:	fc078ee3          	beqz	a5,40000610 <_fflush_r+0x24>
    40000638:	00040513          	mv	a0,s0
    4000063c:	01013403          	ld	s0,16(sp)
    40000640:	01813083          	ld	ra,24(sp)
    40000644:	02010113          	addi	sp,sp,32
    40000648:	d49ff06f          	j	40000390 <__sflush_r>

000000004000064c <fflush>:
    4000064c:	00050593          	mv	a1,a0
    40000650:	00050a63          	beqz	a0,40000664 <fflush+0x18>
    40000654:	0002a797          	auipc	a5,0x2a
    40000658:	cc478793          	addi	a5,a5,-828 # 4002a318 <_impure_ptr>
    4000065c:	0007b503          	ld	a0,0(a5)
    40000660:	f8dff06f          	j	400005ec <_fflush_r>
    40000664:	00029797          	auipc	a5,0x29
    40000668:	1f478793          	addi	a5,a5,500 # 40029858 <_global_impure_ptr>
    4000066c:	0007b503          	ld	a0,0(a5)
    40000670:	00000597          	auipc	a1,0x0
    40000674:	f7c58593          	addi	a1,a1,-132 # 400005ec <_fflush_r>
    40000678:	4bc0006f          	j	40000b34 <_fwalk_reent>

000000004000067c <fileno>:
    4000067c:	fe010113          	addi	sp,sp,-32
    40000680:	00913423          	sd	s1,8(sp)
    40000684:	0002a497          	auipc	s1,0x2a
    40000688:	c9448493          	addi	s1,s1,-876 # 4002a318 <_impure_ptr>
    4000068c:	0004b783          	ld	a5,0(s1)
    40000690:	00813823          	sd	s0,16(sp)
    40000694:	00113c23          	sd	ra,24(sp)
    40000698:	00050413          	mv	s0,a0
    4000069c:	00078663          	beqz	a5,400006a8 <fileno+0x2c>
    400006a0:	0507a703          	lw	a4,80(a5)
    400006a4:	02070263          	beqz	a4,400006c8 <fileno+0x4c>
    400006a8:	01041783          	lh	a5,16(s0)
    400006ac:	02078463          	beqz	a5,400006d4 <fileno+0x58>
    400006b0:	01241503          	lh	a0,18(s0)
    400006b4:	01813083          	ld	ra,24(sp)
    400006b8:	01013403          	ld	s0,16(sp)
    400006bc:	00813483          	ld	s1,8(sp)
    400006c0:	02010113          	addi	sp,sp,32
    400006c4:	00008067          	ret
    400006c8:	00078513          	mv	a0,a5
    400006cc:	344000ef          	jal	ra,40000a10 <__sinit>
    400006d0:	fd9ff06f          	j	400006a8 <fileno+0x2c>
    400006d4:	0004b783          	ld	a5,0(s1)
    400006d8:	00900713          	li	a4,9
    400006dc:	fff00513          	li	a0,-1
    400006e0:	00e7a023          	sw	a4,0(a5)
    400006e4:	fd1ff06f          	j	400006b4 <fileno+0x38>

00000000400006e8 <__fp_lock>:
    400006e8:	00000513          	li	a0,0
    400006ec:	00008067          	ret

00000000400006f0 <_cleanup_r>:
    400006f0:	00000597          	auipc	a1,0x0
    400006f4:	b7c58593          	addi	a1,a1,-1156 # 4000026c <_fclose_r>
    400006f8:	43c0006f          	j	40000b34 <_fwalk_reent>

00000000400006fc <__sinit.part.0>:
    400006fc:	fc010113          	addi	sp,sp,-64
    40000700:	02113c23          	sd	ra,56(sp)
    40000704:	02813823          	sd	s0,48(sp)
    40000708:	02913423          	sd	s1,40(sp)
    4000070c:	03213023          	sd	s2,32(sp)
    40000710:	01313c23          	sd	s3,24(sp)
    40000714:	01413823          	sd	s4,16(sp)
    40000718:	01513423          	sd	s5,8(sp)
    4000071c:	01613023          	sd	s6,0(sp)
    40000720:	00853403          	ld	s0,8(a0)
    40000724:	00000717          	auipc	a4,0x0
    40000728:	fcc70713          	addi	a4,a4,-52 # 400006f0 <_cleanup_r>
    4000072c:	04e53c23          	sd	a4,88(a0)
    40000730:	53850793          	addi	a5,a0,1336
    40000734:	00300713          	li	a4,3
    40000738:	52e52423          	sw	a4,1320(a0)
    4000073c:	52f53823          	sd	a5,1328(a0)
    40000740:	52053023          	sd	zero,1312(a0)
    40000744:	00400793          	li	a5,4
    40000748:	00050913          	mv	s2,a0
    4000074c:	00f42823          	sw	a5,16(s0)
    40000750:	00800613          	li	a2,8
    40000754:	00000593          	li	a1,0
    40000758:	0a042623          	sw	zero,172(s0)
    4000075c:	00043023          	sd	zero,0(s0)
    40000760:	00043423          	sd	zero,8(s0)
    40000764:	00043c23          	sd	zero,24(s0)
    40000768:	02042023          	sw	zero,32(s0)
    4000076c:	02042423          	sw	zero,40(s0)
    40000770:	0a440513          	addi	a0,s0,164
    40000774:	039000ef          	jal	ra,40000fac <memset>
    40000778:	01093483          	ld	s1,16(s2)
    4000077c:	00001b17          	auipc	s6,0x1
    40000780:	9a8b0b13          	addi	s6,s6,-1624 # 40001124 <__sread>
    40000784:	00001a97          	auipc	s5,0x1
    40000788:	a04a8a93          	addi	s5,s5,-1532 # 40001188 <__swrite>
    4000078c:	00001a17          	auipc	s4,0x1
    40000790:	a84a0a13          	addi	s4,s4,-1404 # 40001210 <__sseek>
    40000794:	00001997          	auipc	s3,0x1
    40000798:	ae498993          	addi	s3,s3,-1308 # 40001278 <__sclose>
    4000079c:	000107b7          	lui	a5,0x10
    400007a0:	03643c23          	sd	s6,56(s0)
    400007a4:	05543023          	sd	s5,64(s0)
    400007a8:	05443423          	sd	s4,72(s0)
    400007ac:	05343823          	sd	s3,80(s0)
    400007b0:	02843823          	sd	s0,48(s0)
    400007b4:	00978793          	addi	a5,a5,9 # 10009 <__STACKSIZE__+0xf009>
    400007b8:	00f4a823          	sw	a5,16(s1)
    400007bc:	00800613          	li	a2,8
    400007c0:	00000593          	li	a1,0
    400007c4:	0a04a623          	sw	zero,172(s1)
    400007c8:	0004b023          	sd	zero,0(s1)
    400007cc:	0004b423          	sd	zero,8(s1)
    400007d0:	0004bc23          	sd	zero,24(s1)
    400007d4:	0204a023          	sw	zero,32(s1)
    400007d8:	0204a423          	sw	zero,40(s1)
    400007dc:	0a448513          	addi	a0,s1,164
    400007e0:	7cc000ef          	jal	ra,40000fac <memset>
    400007e4:	01893403          	ld	s0,24(s2)
    400007e8:	000207b7          	lui	a5,0x20
    400007ec:	0364bc23          	sd	s6,56(s1)
    400007f0:	0554b023          	sd	s5,64(s1)
    400007f4:	0544b423          	sd	s4,72(s1)
    400007f8:	0534b823          	sd	s3,80(s1)
    400007fc:	0294b823          	sd	s1,48(s1)
    40000800:	01278793          	addi	a5,a5,18 # 20012 <__STACKSIZE__+0x1f012>
    40000804:	00f42823          	sw	a5,16(s0)
    40000808:	0a042623          	sw	zero,172(s0)
    4000080c:	00043023          	sd	zero,0(s0)
    40000810:	00043423          	sd	zero,8(s0)
    40000814:	00043c23          	sd	zero,24(s0)
    40000818:	02042023          	sw	zero,32(s0)
    4000081c:	02042423          	sw	zero,40(s0)
    40000820:	0a440513          	addi	a0,s0,164
    40000824:	00800613          	li	a2,8
    40000828:	00000593          	li	a1,0
    4000082c:	780000ef          	jal	ra,40000fac <memset>
    40000830:	03813083          	ld	ra,56(sp)
    40000834:	03643c23          	sd	s6,56(s0)
    40000838:	05543023          	sd	s5,64(s0)
    4000083c:	05443423          	sd	s4,72(s0)
    40000840:	05343823          	sd	s3,80(s0)
    40000844:	02843823          	sd	s0,48(s0)
    40000848:	03013403          	ld	s0,48(sp)
    4000084c:	00100793          	li	a5,1
    40000850:	04f92823          	sw	a5,80(s2)
    40000854:	02813483          	ld	s1,40(sp)
    40000858:	02013903          	ld	s2,32(sp)
    4000085c:	01813983          	ld	s3,24(sp)
    40000860:	01013a03          	ld	s4,16(sp)
    40000864:	00813a83          	ld	s5,8(sp)
    40000868:	00013b03          	ld	s6,0(sp)
    4000086c:	04010113          	addi	sp,sp,64
    40000870:	00008067          	ret

0000000040000874 <__fp_unlock>:
    40000874:	00000513          	li	a0,0
    40000878:	00008067          	ret

000000004000087c <__sfmoreglue>:
    4000087c:	fe010113          	addi	sp,sp,-32
    40000880:	fff5861b          	addiw	a2,a1,-1
    40000884:	00813823          	sd	s0,16(sp)
    40000888:	00161413          	slli	s0,a2,0x1
    4000088c:	00c40433          	add	s0,s0,a2
    40000890:	00241413          	slli	s0,s0,0x2
    40000894:	40c40433          	sub	s0,s0,a2
    40000898:	00441413          	slli	s0,s0,0x4
    4000089c:	01213023          	sd	s2,0(sp)
    400008a0:	00058913          	mv	s2,a1
    400008a4:	0c840593          	addi	a1,s0,200
    400008a8:	00913423          	sd	s1,8(sp)
    400008ac:	00113c23          	sd	ra,24(sp)
    400008b0:	63d240ef          	jal	ra,400256ec <_malloc_r>
    400008b4:	00050493          	mv	s1,a0
    400008b8:	02050063          	beqz	a0,400008d8 <__sfmoreglue+0x5c>
    400008bc:	01850513          	addi	a0,a0,24
    400008c0:	0004b023          	sd	zero,0(s1)
    400008c4:	0124a423          	sw	s2,8(s1)
    400008c8:	00a4b823          	sd	a0,16(s1)
    400008cc:	0b040613          	addi	a2,s0,176
    400008d0:	00000593          	li	a1,0
    400008d4:	6d8000ef          	jal	ra,40000fac <memset>
    400008d8:	01813083          	ld	ra,24(sp)
    400008dc:	01013403          	ld	s0,16(sp)
    400008e0:	00048513          	mv	a0,s1
    400008e4:	00013903          	ld	s2,0(sp)
    400008e8:	00813483          	ld	s1,8(sp)
    400008ec:	02010113          	addi	sp,sp,32
    400008f0:	00008067          	ret

00000000400008f4 <__sfp>:
    400008f4:	fd010113          	addi	sp,sp,-48
    400008f8:	00029797          	auipc	a5,0x29
    400008fc:	f6078793          	addi	a5,a5,-160 # 40029858 <_global_impure_ptr>
    40000900:	01213823          	sd	s2,16(sp)
    40000904:	0007b903          	ld	s2,0(a5)
    40000908:	01313423          	sd	s3,8(sp)
    4000090c:	02113423          	sd	ra,40(sp)
    40000910:	05092783          	lw	a5,80(s2)
    40000914:	02813023          	sd	s0,32(sp)
    40000918:	00913c23          	sd	s1,24(sp)
    4000091c:	00050993          	mv	s3,a0
    40000920:	0a078463          	beqz	a5,400009c8 <__sfp+0xd4>
    40000924:	52090913          	addi	s2,s2,1312
    40000928:	fff00493          	li	s1,-1
    4000092c:	00892783          	lw	a5,8(s2)
    40000930:	01093403          	ld	s0,16(s2)
    40000934:	fff7879b          	addiw	a5,a5,-1
    40000938:	0007da63          	bgez	a5,4000094c <__sfp+0x58>
    4000093c:	07c0006f          	j	400009b8 <__sfp+0xc4>
    40000940:	fff7879b          	addiw	a5,a5,-1
    40000944:	0b040413          	addi	s0,s0,176
    40000948:	06978863          	beq	a5,s1,400009b8 <__sfp+0xc4>
    4000094c:	01041703          	lh	a4,16(s0)
    40000950:	fe0718e3          	bnez	a4,40000940 <__sfp+0x4c>
    40000954:	ffff07b7          	lui	a5,0xffff0
    40000958:	00178793          	addi	a5,a5,1 # ffffffffffff0001 <_heap_begin+0xffffffffbff30001>
    4000095c:	0a042623          	sw	zero,172(s0)
    40000960:	00043023          	sd	zero,0(s0)
    40000964:	00043423          	sd	zero,8(s0)
    40000968:	00f42823          	sw	a5,16(s0)
    4000096c:	00043c23          	sd	zero,24(s0)
    40000970:	02042023          	sw	zero,32(s0)
    40000974:	02042423          	sw	zero,40(s0)
    40000978:	00800613          	li	a2,8
    4000097c:	00000593          	li	a1,0
    40000980:	0a440513          	addi	a0,s0,164
    40000984:	628000ef          	jal	ra,40000fac <memset>
    40000988:	04043c23          	sd	zero,88(s0)
    4000098c:	06042023          	sw	zero,96(s0)
    40000990:	06043c23          	sd	zero,120(s0)
    40000994:	08042023          	sw	zero,128(s0)
    40000998:	00040513          	mv	a0,s0
    4000099c:	02813083          	ld	ra,40(sp)
    400009a0:	02013403          	ld	s0,32(sp)
    400009a4:	01813483          	ld	s1,24(sp)
    400009a8:	01013903          	ld	s2,16(sp)
    400009ac:	00813983          	ld	s3,8(sp)
    400009b0:	03010113          	addi	sp,sp,48
    400009b4:	00008067          	ret
    400009b8:	00093403          	ld	s0,0(s2)
    400009bc:	00040c63          	beqz	s0,400009d4 <__sfp+0xe0>
    400009c0:	00040913          	mv	s2,s0
    400009c4:	f69ff06f          	j	4000092c <__sfp+0x38>
    400009c8:	00090513          	mv	a0,s2
    400009cc:	d31ff0ef          	jal	ra,400006fc <__sinit.part.0>
    400009d0:	f55ff06f          	j	40000924 <__sfp+0x30>
    400009d4:	00400593          	li	a1,4
    400009d8:	00098513          	mv	a0,s3
    400009dc:	ea1ff0ef          	jal	ra,4000087c <__sfmoreglue>
    400009e0:	00a93023          	sd	a0,0(s2)
    400009e4:	00050413          	mv	s0,a0
    400009e8:	fc051ce3          	bnez	a0,400009c0 <__sfp+0xcc>
    400009ec:	00c00793          	li	a5,12
    400009f0:	00f9a023          	sw	a5,0(s3)
    400009f4:	fa5ff06f          	j	40000998 <__sfp+0xa4>

00000000400009f8 <_cleanup>:
    400009f8:	00029797          	auipc	a5,0x29
    400009fc:	e6078793          	addi	a5,a5,-416 # 40029858 <_global_impure_ptr>
    40000a00:	0007b503          	ld	a0,0(a5)
    40000a04:	00000597          	auipc	a1,0x0
    40000a08:	86858593          	addi	a1,a1,-1944 # 4000026c <_fclose_r>
    40000a0c:	1280006f          	j	40000b34 <_fwalk_reent>

0000000040000a10 <__sinit>:
    40000a10:	05052783          	lw	a5,80(a0)
    40000a14:	00078463          	beqz	a5,40000a1c <__sinit+0xc>
    40000a18:	00008067          	ret
    40000a1c:	ce1ff06f          	j	400006fc <__sinit.part.0>

0000000040000a20 <__sfp_lock_acquire>:
    40000a20:	00008067          	ret

0000000040000a24 <__sfp_lock_release>:
    40000a24:	00008067          	ret

0000000040000a28 <__sinit_lock_acquire>:
    40000a28:	00008067          	ret

0000000040000a2c <__sinit_lock_release>:
    40000a2c:	00008067          	ret

0000000040000a30 <__fp_lock_all>:
    40000a30:	0002a797          	auipc	a5,0x2a
    40000a34:	8e878793          	addi	a5,a5,-1816 # 4002a318 <_impure_ptr>
    40000a38:	0007b503          	ld	a0,0(a5)
    40000a3c:	00000597          	auipc	a1,0x0
    40000a40:	cac58593          	addi	a1,a1,-852 # 400006e8 <__fp_lock>
    40000a44:	01c0006f          	j	40000a60 <_fwalk>

0000000040000a48 <__fp_unlock_all>:
    40000a48:	0002a797          	auipc	a5,0x2a
    40000a4c:	8d078793          	addi	a5,a5,-1840 # 4002a318 <_impure_ptr>
    40000a50:	0007b503          	ld	a0,0(a5)
    40000a54:	00000597          	auipc	a1,0x0
    40000a58:	e2058593          	addi	a1,a1,-480 # 40000874 <__fp_unlock>
    40000a5c:	0040006f          	j	40000a60 <_fwalk>

0000000040000a60 <_fwalk>:
    40000a60:	fc010113          	addi	sp,sp,-64
    40000a64:	01313c23          	sd	s3,24(sp)
    40000a68:	02113c23          	sd	ra,56(sp)
    40000a6c:	02813823          	sd	s0,48(sp)
    40000a70:	02913423          	sd	s1,40(sp)
    40000a74:	03213023          	sd	s2,32(sp)
    40000a78:	01413823          	sd	s4,16(sp)
    40000a7c:	01513423          	sd	s5,8(sp)
    40000a80:	01613023          	sd	s6,0(sp)
    40000a84:	52050993          	addi	s3,a0,1312
    40000a88:	0a098263          	beqz	s3,40000b2c <_fwalk+0xcc>
    40000a8c:	00058a93          	mv	s5,a1
    40000a90:	00000913          	li	s2,0
    40000a94:	00100b13          	li	s6,1
    40000a98:	fff00a13          	li	s4,-1
    40000a9c:	0089a783          	lw	a5,8(s3)
    40000aa0:	0109b403          	ld	s0,16(s3)
    40000aa4:	04f05a63          	blez	a5,40000af8 <_fwalk+0x98>
    40000aa8:	fff7879b          	addiw	a5,a5,-1
    40000aac:	02079493          	slli	s1,a5,0x20
    40000ab0:	0204d493          	srli	s1,s1,0x20
    40000ab4:	00148793          	addi	a5,s1,1
    40000ab8:	00179493          	slli	s1,a5,0x1
    40000abc:	00f484b3          	add	s1,s1,a5
    40000ac0:	00249493          	slli	s1,s1,0x2
    40000ac4:	40f484b3          	sub	s1,s1,a5
    40000ac8:	00449493          	slli	s1,s1,0x4
    40000acc:	009404b3          	add	s1,s0,s1
    40000ad0:	01045783          	lhu	a5,16(s0)
    40000ad4:	00fb7e63          	bgeu	s6,a5,40000af0 <_fwalk+0x90>
    40000ad8:	01241783          	lh	a5,18(s0)
    40000adc:	00040513          	mv	a0,s0
    40000ae0:	01478863          	beq	a5,s4,40000af0 <_fwalk+0x90>
    40000ae4:	000a80e7          	jalr	s5
    40000ae8:	01256933          	or	s2,a0,s2
    40000aec:	0009091b          	sext.w	s2,s2
    40000af0:	0b040413          	addi	s0,s0,176
    40000af4:	fc941ee3          	bne	s0,s1,40000ad0 <_fwalk+0x70>
    40000af8:	0009b983          	ld	s3,0(s3)
    40000afc:	fa0990e3          	bnez	s3,40000a9c <_fwalk+0x3c>
    40000b00:	03813083          	ld	ra,56(sp)
    40000b04:	03013403          	ld	s0,48(sp)
    40000b08:	00090513          	mv	a0,s2
    40000b0c:	02813483          	ld	s1,40(sp)
    40000b10:	02013903          	ld	s2,32(sp)
    40000b14:	01813983          	ld	s3,24(sp)
    40000b18:	01013a03          	ld	s4,16(sp)
    40000b1c:	00813a83          	ld	s5,8(sp)
    40000b20:	00013b03          	ld	s6,0(sp)
    40000b24:	04010113          	addi	sp,sp,64
    40000b28:	00008067          	ret
    40000b2c:	00000913          	li	s2,0
    40000b30:	fd1ff06f          	j	40000b00 <_fwalk+0xa0>

0000000040000b34 <_fwalk_reent>:
    40000b34:	fb010113          	addi	sp,sp,-80
    40000b38:	03213823          	sd	s2,48(sp)
    40000b3c:	04113423          	sd	ra,72(sp)
    40000b40:	04813023          	sd	s0,64(sp)
    40000b44:	02913c23          	sd	s1,56(sp)
    40000b48:	03313423          	sd	s3,40(sp)
    40000b4c:	03413023          	sd	s4,32(sp)
    40000b50:	01513c23          	sd	s5,24(sp)
    40000b54:	01613823          	sd	s6,16(sp)
    40000b58:	01713423          	sd	s7,8(sp)
    40000b5c:	52050913          	addi	s2,a0,1312
    40000b60:	0a090863          	beqz	s2,40000c10 <_fwalk_reent+0xdc>
    40000b64:	00058a93          	mv	s5,a1
    40000b68:	00050993          	mv	s3,a0
    40000b6c:	00000b13          	li	s6,0
    40000b70:	00100b93          	li	s7,1
    40000b74:	fff00a13          	li	s4,-1
    40000b78:	00892783          	lw	a5,8(s2)
    40000b7c:	01093403          	ld	s0,16(s2)
    40000b80:	04f05c63          	blez	a5,40000bd8 <_fwalk_reent+0xa4>
    40000b84:	fff7879b          	addiw	a5,a5,-1
    40000b88:	02079493          	slli	s1,a5,0x20
    40000b8c:	0204d493          	srli	s1,s1,0x20
    40000b90:	00148793          	addi	a5,s1,1
    40000b94:	00179493          	slli	s1,a5,0x1
    40000b98:	00f484b3          	add	s1,s1,a5
    40000b9c:	00249493          	slli	s1,s1,0x2
    40000ba0:	40f484b3          	sub	s1,s1,a5
    40000ba4:	00449493          	slli	s1,s1,0x4
    40000ba8:	009404b3          	add	s1,s0,s1
    40000bac:	01045783          	lhu	a5,16(s0)
    40000bb0:	02fbf063          	bgeu	s7,a5,40000bd0 <_fwalk_reent+0x9c>
    40000bb4:	01241783          	lh	a5,18(s0)
    40000bb8:	00040593          	mv	a1,s0
    40000bbc:	00098513          	mv	a0,s3
    40000bc0:	01478863          	beq	a5,s4,40000bd0 <_fwalk_reent+0x9c>
    40000bc4:	000a80e7          	jalr	s5
    40000bc8:	01656b33          	or	s6,a0,s6
    40000bcc:	000b0b1b          	sext.w	s6,s6
    40000bd0:	0b040413          	addi	s0,s0,176
    40000bd4:	fc941ce3          	bne	s0,s1,40000bac <_fwalk_reent+0x78>
    40000bd8:	00093903          	ld	s2,0(s2)
    40000bdc:	f8091ee3          	bnez	s2,40000b78 <_fwalk_reent+0x44>
    40000be0:	04813083          	ld	ra,72(sp)
    40000be4:	04013403          	ld	s0,64(sp)
    40000be8:	000b0513          	mv	a0,s6
    40000bec:	03813483          	ld	s1,56(sp)
    40000bf0:	03013903          	ld	s2,48(sp)
    40000bf4:	02813983          	ld	s3,40(sp)
    40000bf8:	02013a03          	ld	s4,32(sp)
    40000bfc:	01813a83          	ld	s5,24(sp)
    40000c00:	01013b03          	ld	s6,16(sp)
    40000c04:	00813b83          	ld	s7,8(sp)
    40000c08:	05010113          	addi	sp,sp,80
    40000c0c:	00008067          	ret
    40000c10:	00000b13          	li	s6,0
    40000c14:	fcdff06f          	j	40000be0 <_fwalk_reent+0xac>

0000000040000c18 <__swhatbuf_r>:
    40000c18:	f7010113          	addi	sp,sp,-144
    40000c1c:	08813023          	sd	s0,128(sp)
    40000c20:	00058413          	mv	s0,a1
    40000c24:	01259583          	lh	a1,18(a1)
    40000c28:	06913c23          	sd	s1,120(sp)
    40000c2c:	07213823          	sd	s2,112(sp)
    40000c30:	08113423          	sd	ra,136(sp)
    40000c34:	00060493          	mv	s1,a2
    40000c38:	00068913          	mv	s2,a3
    40000c3c:	0405ca63          	bltz	a1,40000c90 <__swhatbuf_r+0x78>
    40000c40:	00810613          	addi	a2,sp,8
    40000c44:	10d240ef          	jal	ra,40025550 <_fstat_r>
    40000c48:	04054463          	bltz	a0,40000c90 <__swhatbuf_r+0x78>
    40000c4c:	00c12783          	lw	a5,12(sp)
    40000c50:	0000f737          	lui	a4,0xf
    40000c54:	08813083          	ld	ra,136(sp)
    40000c58:	00e7f7b3          	and	a5,a5,a4
    40000c5c:	00002737          	lui	a4,0x2
    40000c60:	40e787b3          	sub	a5,a5,a4
    40000c64:	0017b793          	seqz	a5,a5
    40000c68:	08013403          	ld	s0,128(sp)
    40000c6c:	00f92023          	sw	a5,0(s2)
    40000c70:	40000793          	li	a5,1024
    40000c74:	00f4b023          	sd	a5,0(s1)
    40000c78:	00001537          	lui	a0,0x1
    40000c7c:	07813483          	ld	s1,120(sp)
    40000c80:	07013903          	ld	s2,112(sp)
    40000c84:	80050513          	addi	a0,a0,-2048 # 800 <__STACKSIZE__-0x800>
    40000c88:	09010113          	addi	sp,sp,144
    40000c8c:	00008067          	ret
    40000c90:	01045783          	lhu	a5,16(s0)
    40000c94:	00092023          	sw	zero,0(s2)
    40000c98:	0807f793          	andi	a5,a5,128
    40000c9c:	02078463          	beqz	a5,40000cc4 <__swhatbuf_r+0xac>
    40000ca0:	08813083          	ld	ra,136(sp)
    40000ca4:	08013403          	ld	s0,128(sp)
    40000ca8:	04000793          	li	a5,64
    40000cac:	00f4b023          	sd	a5,0(s1)
    40000cb0:	07013903          	ld	s2,112(sp)
    40000cb4:	07813483          	ld	s1,120(sp)
    40000cb8:	00000513          	li	a0,0
    40000cbc:	09010113          	addi	sp,sp,144
    40000cc0:	00008067          	ret
    40000cc4:	08813083          	ld	ra,136(sp)
    40000cc8:	08013403          	ld	s0,128(sp)
    40000ccc:	40000793          	li	a5,1024
    40000cd0:	00f4b023          	sd	a5,0(s1)
    40000cd4:	07013903          	ld	s2,112(sp)
    40000cd8:	07813483          	ld	s1,120(sp)
    40000cdc:	00000513          	li	a0,0
    40000ce0:	09010113          	addi	sp,sp,144
    40000ce4:	00008067          	ret

0000000040000ce8 <__smakebuf_r>:
    40000ce8:	0105d703          	lhu	a4,16(a1)
    40000cec:	fd010113          	addi	sp,sp,-48
    40000cf0:	02813023          	sd	s0,32(sp)
    40000cf4:	02113423          	sd	ra,40(sp)
    40000cf8:	00913c23          	sd	s1,24(sp)
    40000cfc:	01213823          	sd	s2,16(sp)
    40000d00:	00277713          	andi	a4,a4,2
    40000d04:	00058413          	mv	s0,a1
    40000d08:	02070863          	beqz	a4,40000d38 <__smakebuf_r+0x50>
    40000d0c:	07758713          	addi	a4,a1,119
    40000d10:	00e5b023          	sd	a4,0(a1)
    40000d14:	00e5bc23          	sd	a4,24(a1)
    40000d18:	00100713          	li	a4,1
    40000d1c:	02e5a023          	sw	a4,32(a1)
    40000d20:	02813083          	ld	ra,40(sp)
    40000d24:	02013403          	ld	s0,32(sp)
    40000d28:	01813483          	ld	s1,24(sp)
    40000d2c:	01013903          	ld	s2,16(sp)
    40000d30:	03010113          	addi	sp,sp,48
    40000d34:	00008067          	ret
    40000d38:	00410693          	addi	a3,sp,4
    40000d3c:	00810613          	addi	a2,sp,8
    40000d40:	00050493          	mv	s1,a0
    40000d44:	ed5ff0ef          	jal	ra,40000c18 <__swhatbuf_r>
    40000d48:	00813583          	ld	a1,8(sp)
    40000d4c:	00050913          	mv	s2,a0
    40000d50:	00048513          	mv	a0,s1
    40000d54:	199240ef          	jal	ra,400256ec <_malloc_r>
    40000d58:	01041783          	lh	a5,16(s0)
    40000d5c:	04050863          	beqz	a0,40000dac <__smakebuf_r+0xc4>
    40000d60:	00000697          	auipc	a3,0x0
    40000d64:	99068693          	addi	a3,a3,-1648 # 400006f0 <_cleanup_r>
    40000d68:	04d4bc23          	sd	a3,88(s1)
    40000d6c:	00813683          	ld	a3,8(sp)
    40000d70:	00412703          	lw	a4,4(sp)
    40000d74:	0807e793          	ori	a5,a5,128
    40000d78:	00f41823          	sh	a5,16(s0)
    40000d7c:	00a43023          	sd	a0,0(s0)
    40000d80:	00a43c23          	sd	a0,24(s0)
    40000d84:	02d42023          	sw	a3,32(s0)
    40000d88:	04071863          	bnez	a4,40000dd8 <__smakebuf_r+0xf0>
    40000d8c:	0127e7b3          	or	a5,a5,s2
    40000d90:	00f41823          	sh	a5,16(s0)
    40000d94:	02813083          	ld	ra,40(sp)
    40000d98:	02013403          	ld	s0,32(sp)
    40000d9c:	01813483          	ld	s1,24(sp)
    40000da0:	01013903          	ld	s2,16(sp)
    40000da4:	03010113          	addi	sp,sp,48
    40000da8:	00008067          	ret
    40000dac:	2007f713          	andi	a4,a5,512
    40000db0:	f60718e3          	bnez	a4,40000d20 <__smakebuf_r+0x38>
    40000db4:	ffc7f793          	andi	a5,a5,-4
    40000db8:	0027e793          	ori	a5,a5,2
    40000dbc:	07740713          	addi	a4,s0,119
    40000dc0:	00f41823          	sh	a5,16(s0)
    40000dc4:	00100793          	li	a5,1
    40000dc8:	00e43023          	sd	a4,0(s0)
    40000dcc:	00e43c23          	sd	a4,24(s0)
    40000dd0:	02f42023          	sw	a5,32(s0)
    40000dd4:	f4dff06f          	j	40000d20 <__smakebuf_r+0x38>
    40000dd8:	01241583          	lh	a1,18(s0)
    40000ddc:	00048513          	mv	a0,s1
    40000de0:	7ac240ef          	jal	ra,4002558c <_isatty_r>
    40000de4:	00051663          	bnez	a0,40000df0 <__smakebuf_r+0x108>
    40000de8:	01041783          	lh	a5,16(s0)
    40000dec:	fa1ff06f          	j	40000d8c <__smakebuf_r+0xa4>
    40000df0:	01045783          	lhu	a5,16(s0)
    40000df4:	ffc7f793          	andi	a5,a5,-4
    40000df8:	0017e793          	ori	a5,a5,1
    40000dfc:	0107979b          	slliw	a5,a5,0x10
    40000e00:	4107d79b          	sraiw	a5,a5,0x10
    40000e04:	f89ff06f          	j	40000d8c <__smakebuf_r+0xa4>

0000000040000e08 <memcmp>:
    40000e08:	00700793          	li	a5,7
    40000e0c:	02c7f863          	bgeu	a5,a2,40000e3c <memcmp+0x34>
    40000e10:	00b567b3          	or	a5,a0,a1
    40000e14:	0077f793          	andi	a5,a5,7
    40000e18:	00700693          	li	a3,7
    40000e1c:	06079263          	bnez	a5,40000e80 <memcmp+0x78>
    40000e20:	00053703          	ld	a4,0(a0)
    40000e24:	0005b783          	ld	a5,0(a1)
    40000e28:	04f71c63          	bne	a4,a5,40000e80 <memcmp+0x78>
    40000e2c:	ff860613          	addi	a2,a2,-8
    40000e30:	00850513          	addi	a0,a0,8
    40000e34:	00858593          	addi	a1,a1,8
    40000e38:	fec6e4e3          	bltu	a3,a2,40000e20 <memcmp+0x18>
    40000e3c:	fff60793          	addi	a5,a2,-1
    40000e40:	02060c63          	beqz	a2,40000e78 <memcmp+0x70>
    40000e44:	00054703          	lbu	a4,0(a0)
    40000e48:	0005c683          	lbu	a3,0(a1)
    40000e4c:	02d71e63          	bne	a4,a3,40000e88 <memcmp+0x80>
    40000e50:	00178713          	addi	a4,a5,1
    40000e54:	00150793          	addi	a5,a0,1
    40000e58:	00e50533          	add	a0,a0,a4
    40000e5c:	0140006f          	j	40000e70 <memcmp+0x68>
    40000e60:	0007c703          	lbu	a4,0(a5)
    40000e64:	0005c683          	lbu	a3,0(a1)
    40000e68:	00178793          	addi	a5,a5,1
    40000e6c:	00d71e63          	bne	a4,a3,40000e88 <memcmp+0x80>
    40000e70:	00158593          	addi	a1,a1,1
    40000e74:	fea796e3          	bne	a5,a0,40000e60 <memcmp+0x58>
    40000e78:	00000513          	li	a0,0
    40000e7c:	00008067          	ret
    40000e80:	fff60793          	addi	a5,a2,-1
    40000e84:	fc1ff06f          	j	40000e44 <memcmp+0x3c>
    40000e88:	40d7053b          	subw	a0,a4,a3
    40000e8c:	00008067          	ret

0000000040000e90 <memcpy>:
    40000e90:	00a5c7b3          	xor	a5,a1,a0
    40000e94:	0077f793          	andi	a5,a5,7
    40000e98:	00c508b3          	add	a7,a0,a2
    40000e9c:	06079263          	bnez	a5,40000f00 <memcpy+0x70>
    40000ea0:	00700793          	li	a5,7
    40000ea4:	04c7fe63          	bgeu	a5,a2,40000f00 <memcpy+0x70>
    40000ea8:	00757793          	andi	a5,a0,7
    40000eac:	00050713          	mv	a4,a0
    40000eb0:	06079863          	bnez	a5,40000f20 <memcpy+0x90>
    40000eb4:	ff88f613          	andi	a2,a7,-8
    40000eb8:	fc060793          	addi	a5,a2,-64
    40000ebc:	08f76c63          	bltu	a4,a5,40000f54 <memcpy+0xc4>
    40000ec0:	02c77c63          	bgeu	a4,a2,40000ef8 <memcpy+0x68>
    40000ec4:	00058693          	mv	a3,a1
    40000ec8:	00070793          	mv	a5,a4
    40000ecc:	0006b803          	ld	a6,0(a3)
    40000ed0:	00878793          	addi	a5,a5,8
    40000ed4:	00868693          	addi	a3,a3,8
    40000ed8:	ff07bc23          	sd	a6,-8(a5)
    40000edc:	fec7e8e3          	bltu	a5,a2,40000ecc <memcpy+0x3c>
    40000ee0:	fff60793          	addi	a5,a2,-1
    40000ee4:	40e787b3          	sub	a5,a5,a4
    40000ee8:	ff87f793          	andi	a5,a5,-8
    40000eec:	00878793          	addi	a5,a5,8
    40000ef0:	00f70733          	add	a4,a4,a5
    40000ef4:	00f585b3          	add	a1,a1,a5
    40000ef8:	01176863          	bltu	a4,a7,40000f08 <memcpy+0x78>
    40000efc:	00008067          	ret
    40000f00:	00050713          	mv	a4,a0
    40000f04:	ff157ce3          	bgeu	a0,a7,40000efc <memcpy+0x6c>
    40000f08:	0005c783          	lbu	a5,0(a1)
    40000f0c:	00170713          	addi	a4,a4,1 # 2001 <__STACKSIZE__+0x1001>
    40000f10:	00158593          	addi	a1,a1,1
    40000f14:	fef70fa3          	sb	a5,-1(a4)
    40000f18:	ff1768e3          	bltu	a4,a7,40000f08 <memcpy+0x78>
    40000f1c:	00008067          	ret
    40000f20:	0005c683          	lbu	a3,0(a1)
    40000f24:	00170713          	addi	a4,a4,1
    40000f28:	00777793          	andi	a5,a4,7
    40000f2c:	fed70fa3          	sb	a3,-1(a4)
    40000f30:	00158593          	addi	a1,a1,1
    40000f34:	f80780e3          	beqz	a5,40000eb4 <memcpy+0x24>
    40000f38:	0005c683          	lbu	a3,0(a1)
    40000f3c:	00170713          	addi	a4,a4,1
    40000f40:	00777793          	andi	a5,a4,7
    40000f44:	fed70fa3          	sb	a3,-1(a4)
    40000f48:	00158593          	addi	a1,a1,1
    40000f4c:	fc079ae3          	bnez	a5,40000f20 <memcpy+0x90>
    40000f50:	f65ff06f          	j	40000eb4 <memcpy+0x24>
    40000f54:	0005b683          	ld	a3,0(a1)
    40000f58:	0085b283          	ld	t0,8(a1)
    40000f5c:	0105bf83          	ld	t6,16(a1)
    40000f60:	0185bf03          	ld	t5,24(a1)
    40000f64:	0205be83          	ld	t4,32(a1)
    40000f68:	0285be03          	ld	t3,40(a1)
    40000f6c:	0305b303          	ld	t1,48(a1)
    40000f70:	0385b803          	ld	a6,56(a1)
    40000f74:	04858593          	addi	a1,a1,72
    40000f78:	00d73023          	sd	a3,0(a4)
    40000f7c:	ff85b683          	ld	a3,-8(a1)
    40000f80:	00573423          	sd	t0,8(a4)
    40000f84:	01f73823          	sd	t6,16(a4)
    40000f88:	01e73c23          	sd	t5,24(a4)
    40000f8c:	03d73023          	sd	t4,32(a4)
    40000f90:	03c73423          	sd	t3,40(a4)
    40000f94:	02673823          	sd	t1,48(a4)
    40000f98:	03073c23          	sd	a6,56(a4)
    40000f9c:	04870713          	addi	a4,a4,72
    40000fa0:	fed73c23          	sd	a3,-8(a4)
    40000fa4:	faf768e3          	bltu	a4,a5,40000f54 <memcpy+0xc4>
    40000fa8:	f19ff06f          	j	40000ec0 <memcpy+0x30>

0000000040000fac <memset>:
    40000fac:	00f00313          	li	t1,15
    40000fb0:	00050713          	mv	a4,a0
    40000fb4:	02c37a63          	bgeu	t1,a2,40000fe8 <memset+0x3c>
    40000fb8:	00f77793          	andi	a5,a4,15
    40000fbc:	0a079063          	bnez	a5,4000105c <memset+0xb0>
    40000fc0:	06059e63          	bnez	a1,4000103c <memset+0x90>
    40000fc4:	ff067693          	andi	a3,a2,-16
    40000fc8:	00f67613          	andi	a2,a2,15
    40000fcc:	00e686b3          	add	a3,a3,a4
    40000fd0:	00b73023          	sd	a1,0(a4)
    40000fd4:	00b73423          	sd	a1,8(a4)
    40000fd8:	01070713          	addi	a4,a4,16
    40000fdc:	fed76ae3          	bltu	a4,a3,40000fd0 <memset+0x24>
    40000fe0:	00061463          	bnez	a2,40000fe8 <memset+0x3c>
    40000fe4:	00008067          	ret
    40000fe8:	40c306b3          	sub	a3,t1,a2
    40000fec:	00269693          	slli	a3,a3,0x2
    40000ff0:	00000297          	auipc	t0,0x0
    40000ff4:	005686b3          	add	a3,a3,t0
    40000ff8:	00c68067          	jr	12(a3)
    40000ffc:	00b70723          	sb	a1,14(a4)
    40001000:	00b706a3          	sb	a1,13(a4)
    40001004:	00b70623          	sb	a1,12(a4)
    40001008:	00b705a3          	sb	a1,11(a4)
    4000100c:	00b70523          	sb	a1,10(a4)
    40001010:	00b704a3          	sb	a1,9(a4)
    40001014:	00b70423          	sb	a1,8(a4)
    40001018:	00b703a3          	sb	a1,7(a4)
    4000101c:	00b70323          	sb	a1,6(a4)
    40001020:	00b702a3          	sb	a1,5(a4)
    40001024:	00b70223          	sb	a1,4(a4)
    40001028:	00b701a3          	sb	a1,3(a4)
    4000102c:	00b70123          	sb	a1,2(a4)
    40001030:	00b700a3          	sb	a1,1(a4)
    40001034:	00b70023          	sb	a1,0(a4)
    40001038:	00008067          	ret
    4000103c:	0ff5f593          	andi	a1,a1,255
    40001040:	00859693          	slli	a3,a1,0x8
    40001044:	00d5e5b3          	or	a1,a1,a3
    40001048:	01059693          	slli	a3,a1,0x10
    4000104c:	00d5e5b3          	or	a1,a1,a3
    40001050:	02059693          	slli	a3,a1,0x20
    40001054:	00d5e5b3          	or	a1,a1,a3
    40001058:	f6dff06f          	j	40000fc4 <memset+0x18>
    4000105c:	00279693          	slli	a3,a5,0x2
    40001060:	00000297          	auipc	t0,0x0
    40001064:	005686b3          	add	a3,a3,t0
    40001068:	00008293          	mv	t0,ra
    4000106c:	f98680e7          	jalr	-104(a3)
    40001070:	00028093          	mv	ra,t0
    40001074:	ff078793          	addi	a5,a5,-16
    40001078:	40f70733          	sub	a4,a4,a5
    4000107c:	00f60633          	add	a2,a2,a5
    40001080:	f6c374e3          	bgeu	t1,a2,40000fe8 <memset+0x3c>
    40001084:	f3dff06f          	j	40000fc0 <memset+0x14>

0000000040001088 <_printf_r>:
    40001088:	fb010113          	addi	sp,sp,-80
    4000108c:	02c13023          	sd	a2,32(sp)
    40001090:	02d13423          	sd	a3,40(sp)
    40001094:	02f13c23          	sd	a5,56(sp)
    40001098:	02e13823          	sd	a4,48(sp)
    4000109c:	05013023          	sd	a6,64(sp)
    400010a0:	05113423          	sd	a7,72(sp)
    400010a4:	00058613          	mv	a2,a1
    400010a8:	01053583          	ld	a1,16(a0)
    400010ac:	02010793          	addi	a5,sp,32
    400010b0:	00078693          	mv	a3,a5
    400010b4:	00113c23          	sd	ra,24(sp)
    400010b8:	00f13423          	sd	a5,8(sp)
    400010bc:	0a8030ef          	jal	ra,40004164 <_vfprintf_r>
    400010c0:	01813083          	ld	ra,24(sp)
    400010c4:	05010113          	addi	sp,sp,80
    400010c8:	00008067          	ret

00000000400010cc <printf>:
    400010cc:	00029317          	auipc	t1,0x29
    400010d0:	24c30313          	addi	t1,t1,588 # 4002a318 <_impure_ptr>
    400010d4:	00033303          	ld	t1,0(t1)
    400010d8:	fa010113          	addi	sp,sp,-96
    400010dc:	02c13823          	sd	a2,48(sp)
    400010e0:	02d13c23          	sd	a3,56(sp)
    400010e4:	04f13423          	sd	a5,72(sp)
    400010e8:	02b13423          	sd	a1,40(sp)
    400010ec:	04e13023          	sd	a4,64(sp)
    400010f0:	05013823          	sd	a6,80(sp)
    400010f4:	05113c23          	sd	a7,88(sp)
    400010f8:	01033583          	ld	a1,16(t1)
    400010fc:	02810793          	addi	a5,sp,40
    40001100:	00050613          	mv	a2,a0
    40001104:	00078693          	mv	a3,a5
    40001108:	00030513          	mv	a0,t1
    4000110c:	00113c23          	sd	ra,24(sp)
    40001110:	00f13423          	sd	a5,8(sp)
    40001114:	050030ef          	jal	ra,40004164 <_vfprintf_r>
    40001118:	01813083          	ld	ra,24(sp)
    4000111c:	06010113          	addi	sp,sp,96
    40001120:	00008067          	ret

0000000040001124 <__sread>:
    40001124:	ff010113          	addi	sp,sp,-16
    40001128:	00813023          	sd	s0,0(sp)
    4000112c:	00058413          	mv	s0,a1
    40001130:	01259583          	lh	a1,18(a1)
    40001134:	00113423          	sd	ra,8(sp)
    40001138:	4ec240ef          	jal	ra,40025624 <_read_r>
    4000113c:	02054063          	bltz	a0,4000115c <__sread+0x38>
    40001140:	09043783          	ld	a5,144(s0)
    40001144:	00813083          	ld	ra,8(sp)
    40001148:	00a787b3          	add	a5,a5,a0
    4000114c:	08f43823          	sd	a5,144(s0)
    40001150:	00013403          	ld	s0,0(sp)
    40001154:	01010113          	addi	sp,sp,16
    40001158:	00008067          	ret
    4000115c:	01045783          	lhu	a5,16(s0)
    40001160:	fffff737          	lui	a4,0xfffff
    40001164:	fff70713          	addi	a4,a4,-1 # ffffffffffffefff <_heap_begin+0xffffffffbff3efff>
    40001168:	00e7f7b3          	and	a5,a5,a4
    4000116c:	00f41823          	sh	a5,16(s0)
    40001170:	00813083          	ld	ra,8(sp)
    40001174:	00013403          	ld	s0,0(sp)
    40001178:	01010113          	addi	sp,sp,16
    4000117c:	00008067          	ret

0000000040001180 <__seofread>:
    40001180:	00000513          	li	a0,0
    40001184:	00008067          	ret

0000000040001188 <__swrite>:
    40001188:	01059783          	lh	a5,16(a1)
    4000118c:	fd010113          	addi	sp,sp,-48
    40001190:	02813023          	sd	s0,32(sp)
    40001194:	00913c23          	sd	s1,24(sp)
    40001198:	01213823          	sd	s2,16(sp)
    4000119c:	01313423          	sd	s3,8(sp)
    400011a0:	02113423          	sd	ra,40(sp)
    400011a4:	1007f713          	andi	a4,a5,256
    400011a8:	00058413          	mv	s0,a1
    400011ac:	00050493          	mv	s1,a0
    400011b0:	00060913          	mv	s2,a2
    400011b4:	00068993          	mv	s3,a3
    400011b8:	01259583          	lh	a1,18(a1)
    400011bc:	02071e63          	bnez	a4,400011f8 <__swrite+0x70>
    400011c0:	fffff737          	lui	a4,0xfffff
    400011c4:	fff70713          	addi	a4,a4,-1 # ffffffffffffefff <_heap_begin+0xffffffffbff3efff>
    400011c8:	00e7f7b3          	and	a5,a5,a4
    400011cc:	00f41823          	sh	a5,16(s0)
    400011d0:	02013403          	ld	s0,32(sp)
    400011d4:	02813083          	ld	ra,40(sp)
    400011d8:	00098693          	mv	a3,s3
    400011dc:	00090613          	mv	a2,s2
    400011e0:	00813983          	ld	s3,8(sp)
    400011e4:	01013903          	ld	s2,16(sp)
    400011e8:	00048513          	mv	a0,s1
    400011ec:	01813483          	ld	s1,24(sp)
    400011f0:	03010113          	addi	sp,sp,48
    400011f4:	4642406f          	j	40025658 <_write_r>
    400011f8:	00200693          	li	a3,2
    400011fc:	00000613          	li	a2,0
    40001200:	3e8240ef          	jal	ra,400255e8 <_lseek_r>
    40001204:	01041783          	lh	a5,16(s0)
    40001208:	01241583          	lh	a1,18(s0)
    4000120c:	fb5ff06f          	j	400011c0 <__swrite+0x38>

0000000040001210 <__sseek>:
    40001210:	ff010113          	addi	sp,sp,-16
    40001214:	00813023          	sd	s0,0(sp)
    40001218:	00058413          	mv	s0,a1
    4000121c:	01259583          	lh	a1,18(a1)
    40001220:	00113423          	sd	ra,8(sp)
    40001224:	3c4240ef          	jal	ra,400255e8 <_lseek_r>
    40001228:	fff00793          	li	a5,-1
    4000122c:	02f50463          	beq	a0,a5,40001254 <__sseek+0x44>
    40001230:	01045783          	lhu	a5,16(s0)
    40001234:	00001737          	lui	a4,0x1
    40001238:	08a43823          	sd	a0,144(s0)
    4000123c:	00e7e7b3          	or	a5,a5,a4
    40001240:	00f41823          	sh	a5,16(s0)
    40001244:	00813083          	ld	ra,8(sp)
    40001248:	00013403          	ld	s0,0(sp)
    4000124c:	01010113          	addi	sp,sp,16
    40001250:	00008067          	ret
    40001254:	01045783          	lhu	a5,16(s0)
    40001258:	fffff737          	lui	a4,0xfffff
    4000125c:	fff70713          	addi	a4,a4,-1 # ffffffffffffefff <_heap_begin+0xffffffffbff3efff>
    40001260:	00e7f7b3          	and	a5,a5,a4
    40001264:	00f41823          	sh	a5,16(s0)
    40001268:	00813083          	ld	ra,8(sp)
    4000126c:	00013403          	ld	s0,0(sp)
    40001270:	01010113          	addi	sp,sp,16
    40001274:	00008067          	ret

0000000040001278 <__sclose>:
    40001278:	01259583          	lh	a1,18(a1)
    4000127c:	2a82406f          	j	40025524 <_close_r>

0000000040001280 <strcat>:
    40001280:	ff010113          	addi	sp,sp,-16
    40001284:	00813023          	sd	s0,0(sp)
    40001288:	00113423          	sd	ra,8(sp)
    4000128c:	00757793          	andi	a5,a0,7
    40001290:	00050413          	mv	s0,a0
    40001294:	04079663          	bnez	a5,400012e0 <strcat+0x60>
    40001298:	00028797          	auipc	a5,0x28
    4000129c:	5c878793          	addi	a5,a5,1480 # 40029860 <_global_impure_ptr+0x8>
    400012a0:	0007b603          	ld	a2,0(a5)
    400012a4:	00028797          	auipc	a5,0x28
    400012a8:	5c478793          	addi	a5,a5,1476 # 40029868 <_global_impure_ptr+0x10>
    400012ac:	00053703          	ld	a4,0(a0)
    400012b0:	0007b683          	ld	a3,0(a5)
    400012b4:	00c0006f          	j	400012c0 <strcat+0x40>
    400012b8:	00850513          	addi	a0,a0,8
    400012bc:	00053703          	ld	a4,0(a0)
    400012c0:	00c707b3          	add	a5,a4,a2
    400012c4:	fff74713          	not	a4,a4
    400012c8:	00e7f7b3          	and	a5,a5,a4
    400012cc:	00d7f7b3          	and	a5,a5,a3
    400012d0:	fe0784e3          	beqz	a5,400012b8 <strcat+0x38>
    400012d4:	00054783          	lbu	a5,0(a0)
    400012d8:	00078863          	beqz	a5,400012e8 <strcat+0x68>
    400012dc:	00150513          	addi	a0,a0,1
    400012e0:	00054783          	lbu	a5,0(a0)
    400012e4:	fe079ce3          	bnez	a5,400012dc <strcat+0x5c>
    400012e8:	144000ef          	jal	ra,4000142c <strcpy>
    400012ec:	00040513          	mv	a0,s0
    400012f0:	00813083          	ld	ra,8(sp)
    400012f4:	00013403          	ld	s0,0(sp)
    400012f8:	01010113          	addi	sp,sp,16
    400012fc:	00008067          	ret

0000000040001300 <strcmp>:
    40001300:	00b56733          	or	a4,a0,a1
    40001304:	fff00393          	li	t2,-1
    40001308:	00777713          	andi	a4,a4,7
    4000130c:	0c071c63          	bnez	a4,400013e4 <strcmp+0xe4>
    40001310:	00028797          	auipc	a5,0x28
    40001314:	5607b783          	ld	a5,1376(a5) # 40029870 <mask>
    40001318:	00053603          	ld	a2,0(a0)
    4000131c:	0005b683          	ld	a3,0(a1)
    40001320:	00f672b3          	and	t0,a2,a5
    40001324:	00f66333          	or	t1,a2,a5
    40001328:	00f282b3          	add	t0,t0,a5
    4000132c:	0062e2b3          	or	t0,t0,t1
    40001330:	0c729e63          	bne	t0,t2,4000140c <strcmp+0x10c>
    40001334:	04d61663          	bne	a2,a3,40001380 <strcmp+0x80>
    40001338:	00853603          	ld	a2,8(a0)
    4000133c:	0085b683          	ld	a3,8(a1)
    40001340:	00f672b3          	and	t0,a2,a5
    40001344:	00f66333          	or	t1,a2,a5
    40001348:	00f282b3          	add	t0,t0,a5
    4000134c:	0062e2b3          	or	t0,t0,t1
    40001350:	0a729a63          	bne	t0,t2,40001404 <strcmp+0x104>
    40001354:	02d61663          	bne	a2,a3,40001380 <strcmp+0x80>
    40001358:	01053603          	ld	a2,16(a0)
    4000135c:	0105b683          	ld	a3,16(a1)
    40001360:	00f672b3          	and	t0,a2,a5
    40001364:	00f66333          	or	t1,a2,a5
    40001368:	00f282b3          	add	t0,t0,a5
    4000136c:	0062e2b3          	or	t0,t0,t1
    40001370:	0a729463          	bne	t0,t2,40001418 <strcmp+0x118>
    40001374:	01850513          	addi	a0,a0,24
    40001378:	01858593          	addi	a1,a1,24
    4000137c:	f8d60ee3          	beq	a2,a3,40001318 <strcmp+0x18>
    40001380:	03061713          	slli	a4,a2,0x30
    40001384:	03069793          	slli	a5,a3,0x30
    40001388:	02f71a63          	bne	a4,a5,400013bc <strcmp+0xbc>
    4000138c:	02061713          	slli	a4,a2,0x20
    40001390:	02069793          	slli	a5,a3,0x20
    40001394:	02f71463          	bne	a4,a5,400013bc <strcmp+0xbc>
    40001398:	01061713          	slli	a4,a2,0x10
    4000139c:	01069793          	slli	a5,a3,0x10
    400013a0:	00f71e63          	bne	a4,a5,400013bc <strcmp+0xbc>
    400013a4:	03065713          	srli	a4,a2,0x30
    400013a8:	0306d793          	srli	a5,a3,0x30
    400013ac:	40f70533          	sub	a0,a4,a5
    400013b0:	0ff57593          	andi	a1,a0,255
    400013b4:	02059063          	bnez	a1,400013d4 <strcmp+0xd4>
    400013b8:	00008067          	ret
    400013bc:	03075713          	srli	a4,a4,0x30
    400013c0:	0307d793          	srli	a5,a5,0x30
    400013c4:	40f70533          	sub	a0,a4,a5
    400013c8:	0ff57593          	andi	a1,a0,255
    400013cc:	00059463          	bnez	a1,400013d4 <strcmp+0xd4>
    400013d0:	00008067          	ret
    400013d4:	0ff77713          	andi	a4,a4,255
    400013d8:	0ff7f793          	andi	a5,a5,255
    400013dc:	40f70533          	sub	a0,a4,a5
    400013e0:	00008067          	ret
    400013e4:	00054603          	lbu	a2,0(a0)
    400013e8:	0005c683          	lbu	a3,0(a1)
    400013ec:	00150513          	addi	a0,a0,1
    400013f0:	00158593          	addi	a1,a1,1
    400013f4:	00d61463          	bne	a2,a3,400013fc <strcmp+0xfc>
    400013f8:	fe0616e3          	bnez	a2,400013e4 <strcmp+0xe4>
    400013fc:	40d60533          	sub	a0,a2,a3
    40001400:	00008067          	ret
    40001404:	00850513          	addi	a0,a0,8
    40001408:	00858593          	addi	a1,a1,8
    4000140c:	fcd61ce3          	bne	a2,a3,400013e4 <strcmp+0xe4>
    40001410:	00000513          	li	a0,0
    40001414:	00008067          	ret
    40001418:	01050513          	addi	a0,a0,16
    4000141c:	01058593          	addi	a1,a1,16
    40001420:	fcd612e3          	bne	a2,a3,400013e4 <strcmp+0xe4>
    40001424:	00000513          	li	a0,0
    40001428:	00008067          	ret

000000004000142c <strcpy>:
    4000142c:	00b567b3          	or	a5,a0,a1
    40001430:	0077f793          	andi	a5,a5,7
    40001434:	0a079863          	bnez	a5,400014e4 <strcpy+0xb8>
    40001438:	00028797          	auipc	a5,0x28
    4000143c:	43878793          	addi	a5,a5,1080 # 40029870 <mask>
    40001440:	0007b683          	ld	a3,0(a5)
    40001444:	0005b703          	ld	a4,0(a1)
    40001448:	fff00613          	li	a2,-1
    4000144c:	00d777b3          	and	a5,a4,a3
    40001450:	00d787b3          	add	a5,a5,a3
    40001454:	00e7e7b3          	or	a5,a5,a4
    40001458:	00d7e7b3          	or	a5,a5,a3
    4000145c:	0ac79263          	bne	a5,a2,40001500 <strcpy+0xd4>
    40001460:	00050613          	mv	a2,a0
    40001464:	fff00813          	li	a6,-1
    40001468:	00860613          	addi	a2,a2,8
    4000146c:	00858593          	addi	a1,a1,8
    40001470:	fee63c23          	sd	a4,-8(a2)
    40001474:	0005b703          	ld	a4,0(a1)
    40001478:	00d777b3          	and	a5,a4,a3
    4000147c:	00d787b3          	add	a5,a5,a3
    40001480:	00e7e7b3          	or	a5,a5,a4
    40001484:	00d7e7b3          	or	a5,a5,a3
    40001488:	ff0780e3          	beq	a5,a6,40001468 <strcpy+0x3c>
    4000148c:	0005c783          	lbu	a5,0(a1)
    40001490:	0015c703          	lbu	a4,1(a1)
    40001494:	0025c683          	lbu	a3,2(a1)
    40001498:	00f60023          	sb	a5,0(a2)
    4000149c:	04078263          	beqz	a5,400014e0 <strcpy+0xb4>
    400014a0:	00e600a3          	sb	a4,1(a2)
    400014a4:	02070e63          	beqz	a4,400014e0 <strcpy+0xb4>
    400014a8:	0035c783          	lbu	a5,3(a1)
    400014ac:	00d60123          	sb	a3,2(a2)
    400014b0:	02068863          	beqz	a3,400014e0 <strcpy+0xb4>
    400014b4:	0045c703          	lbu	a4,4(a1)
    400014b8:	00f601a3          	sb	a5,3(a2)
    400014bc:	02078263          	beqz	a5,400014e0 <strcpy+0xb4>
    400014c0:	0055c783          	lbu	a5,5(a1)
    400014c4:	00e60223          	sb	a4,4(a2)
    400014c8:	00070c63          	beqz	a4,400014e0 <strcpy+0xb4>
    400014cc:	0065c703          	lbu	a4,6(a1)
    400014d0:	00f602a3          	sb	a5,5(a2)
    400014d4:	00078663          	beqz	a5,400014e0 <strcpy+0xb4>
    400014d8:	00e60323          	sb	a4,6(a2)
    400014dc:	02071663          	bnez	a4,40001508 <strcpy+0xdc>
    400014e0:	00008067          	ret
    400014e4:	00050793          	mv	a5,a0
    400014e8:	0005c703          	lbu	a4,0(a1)
    400014ec:	00178793          	addi	a5,a5,1
    400014f0:	00158593          	addi	a1,a1,1
    400014f4:	fee78fa3          	sb	a4,-1(a5)
    400014f8:	fe0718e3          	bnez	a4,400014e8 <strcpy+0xbc>
    400014fc:	00008067          	ret
    40001500:	00050613          	mv	a2,a0
    40001504:	f89ff06f          	j	4000148c <strcpy+0x60>
    40001508:	000603a3          	sb	zero,7(a2)
    4000150c:	00008067          	ret

0000000040001510 <strlen>:
    40001510:	00757793          	andi	a5,a0,7
    40001514:	00050713          	mv	a4,a0
    40001518:	06079e63          	bnez	a5,40001594 <strlen+0x84>
    4000151c:	00028797          	auipc	a5,0x28
    40001520:	35478793          	addi	a5,a5,852 # 40029870 <mask>
    40001524:	0007b683          	ld	a3,0(a5)
    40001528:	fff00593          	li	a1,-1
    4000152c:	00870713          	addi	a4,a4,8
    40001530:	ff873603          	ld	a2,-8(a4)
    40001534:	00d677b3          	and	a5,a2,a3
    40001538:	00d787b3          	add	a5,a5,a3
    4000153c:	00c7e7b3          	or	a5,a5,a2
    40001540:	00d7e7b3          	or	a5,a5,a3
    40001544:	feb784e3          	beq	a5,a1,4000152c <strlen+0x1c>
    40001548:	ff874783          	lbu	a5,-8(a4)
    4000154c:	40a706b3          	sub	a3,a4,a0
    40001550:	06078463          	beqz	a5,400015b8 <strlen+0xa8>
    40001554:	ff974783          	lbu	a5,-7(a4)
    40001558:	04078c63          	beqz	a5,400015b0 <strlen+0xa0>
    4000155c:	ffa74783          	lbu	a5,-6(a4)
    40001560:	06078463          	beqz	a5,400015c8 <strlen+0xb8>
    40001564:	ffb74783          	lbu	a5,-5(a4)
    40001568:	04078c63          	beqz	a5,400015c0 <strlen+0xb0>
    4000156c:	ffc74603          	lbu	a2,-4(a4)
    40001570:	ffd74583          	lbu	a1,-3(a4)
    40001574:	ffe74783          	lbu	a5,-2(a4)
    40001578:	04060c63          	beqz	a2,400015d0 <strlen+0xc0>
    4000157c:	04058e63          	beqz	a1,400015d8 <strlen+0xc8>
    40001580:	00f03533          	snez	a0,a5
    40001584:	00d50533          	add	a0,a0,a3
    40001588:	ffe50513          	addi	a0,a0,-2
    4000158c:	00008067          	ret
    40001590:	f80686e3          	beqz	a3,4000151c <strlen+0xc>
    40001594:	00074783          	lbu	a5,0(a4)
    40001598:	00170713          	addi	a4,a4,1
    4000159c:	00777693          	andi	a3,a4,7
    400015a0:	fe0798e3          	bnez	a5,40001590 <strlen+0x80>
    400015a4:	40a70733          	sub	a4,a4,a0
    400015a8:	fff70513          	addi	a0,a4,-1
    400015ac:	00008067          	ret
    400015b0:	ff968513          	addi	a0,a3,-7
    400015b4:	00008067          	ret
    400015b8:	ff868513          	addi	a0,a3,-8
    400015bc:	00008067          	ret
    400015c0:	ffb68513          	addi	a0,a3,-5
    400015c4:	00008067          	ret
    400015c8:	ffa68513          	addi	a0,a3,-6
    400015cc:	00008067          	ret
    400015d0:	ffc68513          	addi	a0,a3,-4
    400015d4:	00008067          	ret
    400015d8:	ffd68513          	addi	a0,a3,-3
    400015dc:	00008067          	ret

00000000400015e0 <strncmp>:
    400015e0:	0e060263          	beqz	a2,400016c4 <strncmp+0xe4>
    400015e4:	00b567b3          	or	a5,a0,a1
    400015e8:	0077f793          	andi	a5,a5,7
    400015ec:	08079863          	bnez	a5,4000167c <strncmp+0x9c>
    400015f0:	00700793          	li	a5,7
    400015f4:	08c7f463          	bgeu	a5,a2,4000167c <strncmp+0x9c>
    400015f8:	00053703          	ld	a4,0(a0)
    400015fc:	0005b783          	ld	a5,0(a1)
    40001600:	0cf71663          	bne	a4,a5,400016cc <strncmp+0xec>
    40001604:	ff860613          	addi	a2,a2,-8
    40001608:	0a060e63          	beqz	a2,400016c4 <strncmp+0xe4>
    4000160c:	00028897          	auipc	a7,0x28
    40001610:	25488893          	addi	a7,a7,596 # 40029860 <_global_impure_ptr+0x8>
    40001614:	0008b783          	ld	a5,0(a7)
    40001618:	00028317          	auipc	t1,0x28
    4000161c:	25030313          	addi	t1,t1,592 # 40029868 <_global_impure_ptr+0x10>
    40001620:	00033683          	ld	a3,0(t1)
    40001624:	00f707b3          	add	a5,a4,a5
    40001628:	fff74713          	not	a4,a4
    4000162c:	00e7f7b3          	and	a5,a5,a4
    40001630:	00d7f7b3          	and	a5,a5,a3
    40001634:	08079863          	bnez	a5,400016c4 <strncmp+0xe4>
    40001638:	00700e13          	li	t3,7
    4000163c:	0340006f          	j	40001670 <strncmp+0x90>
    40001640:	00053783          	ld	a5,0(a0)
    40001644:	0005b703          	ld	a4,0(a1)
    40001648:	fff7c693          	not	a3,a5
    4000164c:	08e79063          	bne	a5,a4,400016cc <strncmp+0xec>
    40001650:	ff860613          	addi	a2,a2,-8
    40001654:	06060863          	beqz	a2,400016c4 <strncmp+0xe4>
    40001658:	0008b803          	ld	a6,0(a7)
    4000165c:	00033703          	ld	a4,0(t1)
    40001660:	010787b3          	add	a5,a5,a6
    40001664:	00d7f7b3          	and	a5,a5,a3
    40001668:	00e7f7b3          	and	a5,a5,a4
    4000166c:	04079c63          	bnez	a5,400016c4 <strncmp+0xe4>
    40001670:	00850513          	addi	a0,a0,8
    40001674:	00858593          	addi	a1,a1,8
    40001678:	fcce64e3          	bltu	t3,a2,40001640 <strncmp+0x60>
    4000167c:	00054703          	lbu	a4,0(a0)
    40001680:	0005c683          	lbu	a3,0(a1)
    40001684:	fff60613          	addi	a2,a2,-1
    40001688:	02e69a63          	bne	a3,a4,400016bc <strncmp+0xdc>
    4000168c:	02060c63          	beqz	a2,400016c4 <strncmp+0xe4>
    40001690:	02070a63          	beqz	a4,400016c4 <strncmp+0xe4>
    40001694:	00150793          	addi	a5,a0,1
    40001698:	00c50633          	add	a2,a0,a2
    4000169c:	0100006f          	j	400016ac <strncmp+0xcc>
    400016a0:	02f60263          	beq	a2,a5,400016c4 <strncmp+0xe4>
    400016a4:	00178793          	addi	a5,a5,1
    400016a8:	00070e63          	beqz	a4,400016c4 <strncmp+0xe4>
    400016ac:	00158593          	addi	a1,a1,1
    400016b0:	0007c703          	lbu	a4,0(a5)
    400016b4:	0005c683          	lbu	a3,0(a1)
    400016b8:	fed704e3          	beq	a4,a3,400016a0 <strncmp+0xc0>
    400016bc:	40d7053b          	subw	a0,a4,a3
    400016c0:	00008067          	ret
    400016c4:	00000513          	li	a0,0
    400016c8:	00008067          	ret
    400016cc:	00054703          	lbu	a4,0(a0)
    400016d0:	0005c683          	lbu	a3,0(a1)
    400016d4:	fff60613          	addi	a2,a2,-1
    400016d8:	fae68ce3          	beq	a3,a4,40001690 <strncmp+0xb0>
    400016dc:	fe1ff06f          	j	400016bc <strncmp+0xdc>

00000000400016e0 <strncpy>:
    400016e0:	00a5e7b3          	or	a5,a1,a0
    400016e4:	0077f793          	andi	a5,a5,7
    400016e8:	0a079063          	bnez	a5,40001788 <strncpy+0xa8>
    400016ec:	00700793          	li	a5,7
    400016f0:	08c7fc63          	bgeu	a5,a2,40001788 <strncpy+0xa8>
    400016f4:	00028797          	auipc	a5,0x28
    400016f8:	16c78793          	addi	a5,a5,364 # 40029860 <_global_impure_ptr+0x8>
    400016fc:	0007b303          	ld	t1,0(a5)
    40001700:	00028797          	auipc	a5,0x28
    40001704:	16878793          	addi	a5,a5,360 # 40029868 <_global_impure_ptr+0x10>
    40001708:	0007b883          	ld	a7,0(a5)
    4000170c:	00050713          	mv	a4,a0
    40001710:	00700e13          	li	t3,7
    40001714:	0005b683          	ld	a3,0(a1)
    40001718:	006687b3          	add	a5,a3,t1
    4000171c:	fff6c813          	not	a6,a3
    40001720:	0107f7b3          	and	a5,a5,a6
    40001724:	0117f7b3          	and	a5,a5,a7
    40001728:	00079e63          	bnez	a5,40001744 <strncpy+0x64>
    4000172c:	00870713          	addi	a4,a4,8
    40001730:	ff860613          	addi	a2,a2,-8
    40001734:	fed73c23          	sd	a3,-8(a4)
    40001738:	00858593          	addi	a1,a1,8
    4000173c:	fcce6ce3          	bltu	t3,a2,40001714 <strncpy+0x34>
    40001740:	06060463          	beqz	a2,400017a8 <strncpy+0xc8>
    40001744:	0005c803          	lbu	a6,0(a1)
    40001748:	fff60693          	addi	a3,a2,-1
    4000174c:	00158593          	addi	a1,a1,1
    40001750:	01070023          	sb	a6,0(a4)
    40001754:	00170793          	addi	a5,a4,1
    40001758:	02080c63          	beqz	a6,40001790 <strncpy+0xb0>
    4000175c:	00c70633          	add	a2,a4,a2
    40001760:	00d706b3          	add	a3,a4,a3
    40001764:	0140006f          	j	40001778 <strncpy+0x98>
    40001768:	fff5c703          	lbu	a4,-1(a1)
    4000176c:	00178793          	addi	a5,a5,1
    40001770:	fee78fa3          	sb	a4,-1(a5)
    40001774:	02070063          	beqz	a4,40001794 <strncpy+0xb4>
    40001778:	00158593          	addi	a1,a1,1
    4000177c:	40f68833          	sub	a6,a3,a5
    40001780:	fec794e3          	bne	a5,a2,40001768 <strncpy+0x88>
    40001784:	00008067          	ret
    40001788:	00050713          	mv	a4,a0
    4000178c:	fb5ff06f          	j	40001740 <strncpy+0x60>
    40001790:	00068813          	mv	a6,a3
    40001794:	01078733          	add	a4,a5,a6
    40001798:	00080a63          	beqz	a6,400017ac <strncpy+0xcc>
    4000179c:	00178793          	addi	a5,a5,1
    400017a0:	fe078fa3          	sb	zero,-1(a5)
    400017a4:	fee79ce3          	bne	a5,a4,4000179c <strncpy+0xbc>
    400017a8:	00008067          	ret
    400017ac:	00008067          	ret

00000000400017b0 <_strtol_l.isra.0>:
    400017b0:	f8010113          	addi	sp,sp,-128
    400017b4:	05313c23          	sd	s3,88(sp)
    400017b8:	05413823          	sd	s4,80(sp)
    400017bc:	03913423          	sd	s9,40(sp)
    400017c0:	06113c23          	sd	ra,120(sp)
    400017c4:	00068c93          	mv	s9,a3
    400017c8:	06813823          	sd	s0,112(sp)
    400017cc:	06913423          	sd	s1,104(sp)
    400017d0:	07213023          	sd	s2,96(sp)
    400017d4:	05513423          	sd	s5,72(sp)
    400017d8:	05613023          	sd	s6,64(sp)
    400017dc:	03713c23          	sd	s7,56(sp)
    400017e0:	03813823          	sd	s8,48(sp)
    400017e4:	03a13023          	sd	s10,32(sp)
    400017e8:	01b13c23          	sd	s11,24(sp)
    400017ec:	00058993          	mv	s3,a1
    400017f0:	00a13423          	sd	a0,8(sp)
    400017f4:	00060a13          	mv	s4,a2
    400017f8:	00058713          	mv	a4,a1
    400017fc:	00026697          	auipc	a3,0x26
    40001800:	d4d68693          	addi	a3,a3,-691 # 40027549 <_ctype_+0x1>
    40001804:	0080006f          	j	4000180c <_strtol_l.isra.0+0x5c>
    40001808:	000c0713          	mv	a4,s8
    4000180c:	00170c13          	addi	s8,a4,1
    40001810:	fffc4403          	lbu	s0,-1(s8)
    40001814:	008687b3          	add	a5,a3,s0
    40001818:	0007c783          	lbu	a5,0(a5)
    4000181c:	0087f793          	andi	a5,a5,8
    40001820:	fe0794e3          	bnez	a5,40001808 <_strtol_l.isra.0+0x58>
    40001824:	02d00793          	li	a5,45
    40001828:	18f40463          	beq	s0,a5,400019b0 <_strtol_l.isra.0+0x200>
    4000182c:	02b00793          	li	a5,43
    40001830:	10f40a63          	beq	s0,a5,40001944 <_strtol_l.isra.0+0x194>
    40001834:	0004041b          	sext.w	s0,s0
    40001838:	00000b13          	li	s6,0
    4000183c:	100c8c63          	beqz	s9,40001954 <_strtol_l.isra.0+0x1a4>
    40001840:	01000793          	li	a5,16
    40001844:	000c8493          	mv	s1,s9
    40001848:	18fc8063          	beq	s9,a5,400019c8 <_strtol_l.isra.0+0x218>
    4000184c:	fff00913          	li	s2,-1
    40001850:	100b1e63          	bnez	s6,4000196c <_strtol_l.isra.0+0x1bc>
    40001854:	00195913          	srli	s2,s2,0x1
    40001858:	00048593          	mv	a1,s1
    4000185c:	00090513          	mv	a0,s2
    40001860:	1080e0ef          	jal	ra,4000f968 <__umoddi3>
    40001864:	0005079b          	sext.w	a5,a0
    40001868:	00048593          	mv	a1,s1
    4000186c:	00090513          	mv	a0,s2
    40001870:	00f13023          	sd	a5,0(sp)
    40001874:	0ac0e0ef          	jal	ra,4000f920 <__udivdi3>
    40001878:	0004079b          	sext.w	a5,s0
    4000187c:	00900d13          	li	s10,9
    40001880:	fd07871b          	addiw	a4,a5,-48
    40001884:	00050b93          	mv	s7,a0
    40001888:	00000613          	li	a2,0
    4000188c:	00000593          	li	a1,0
    40001890:	01900a93          	li	s5,25
    40001894:	fff00d93          	li	s11,-1
    40001898:	04ed6063          	bltu	s10,a4,400018d8 <_strtol_l.isra.0+0x128>
    4000189c:	fd04041b          	addiw	s0,s0,-48
    400018a0:	05945463          	bge	s0,s9,400018e8 <_strtol_l.isra.0+0x138>
    400018a4:	03b60063          	beq	a2,s11,400018c4 <_strtol_l.isra.0+0x114>
    400018a8:	fff00613          	li	a2,-1
    400018ac:	00bbec63          	bltu	s7,a1,400018c4 <_strtol_l.isra.0+0x114>
    400018b0:	0cbb8a63          	beq	s7,a1,40001984 <_strtol_l.isra.0+0x1d4>
    400018b4:	00048513          	mv	a0,s1
    400018b8:	7fd0d0ef          	jal	ra,4000f8b4 <__muldi3>
    400018bc:	00a405b3          	add	a1,s0,a0
    400018c0:	00100613          	li	a2,1
    400018c4:	001c0c13          	addi	s8,s8,1
    400018c8:	fffc4403          	lbu	s0,-1(s8)
    400018cc:	0004079b          	sext.w	a5,s0
    400018d0:	fd07871b          	addiw	a4,a5,-48
    400018d4:	fced74e3          	bgeu	s10,a4,4000189c <_strtol_l.isra.0+0xec>
    400018d8:	fbf7871b          	addiw	a4,a5,-65
    400018dc:	08eaec63          	bltu	s5,a4,40001974 <_strtol_l.isra.0+0x1c4>
    400018e0:	fc94041b          	addiw	s0,s0,-55
    400018e4:	fd9440e3          	blt	s0,s9,400018a4 <_strtol_l.isra.0+0xf4>
    400018e8:	fff00793          	li	a5,-1
    400018ec:	0af60263          	beq	a2,a5,40001990 <_strtol_l.isra.0+0x1e0>
    400018f0:	000b0463          	beqz	s6,400018f8 <_strtol_l.isra.0+0x148>
    400018f4:	40b005b3          	neg	a1,a1
    400018f8:	000a0663          	beqz	s4,40001904 <_strtol_l.isra.0+0x154>
    400018fc:	0c061263          	bnez	a2,400019c0 <_strtol_l.isra.0+0x210>
    40001900:	013a3023          	sd	s3,0(s4)
    40001904:	07813083          	ld	ra,120(sp)
    40001908:	07013403          	ld	s0,112(sp)
    4000190c:	06813483          	ld	s1,104(sp)
    40001910:	06013903          	ld	s2,96(sp)
    40001914:	05813983          	ld	s3,88(sp)
    40001918:	05013a03          	ld	s4,80(sp)
    4000191c:	04813a83          	ld	s5,72(sp)
    40001920:	04013b03          	ld	s6,64(sp)
    40001924:	03813b83          	ld	s7,56(sp)
    40001928:	03013c03          	ld	s8,48(sp)
    4000192c:	02813c83          	ld	s9,40(sp)
    40001930:	02013d03          	ld	s10,32(sp)
    40001934:	01813d83          	ld	s11,24(sp)
    40001938:	00058513          	mv	a0,a1
    4000193c:	08010113          	addi	sp,sp,128
    40001940:	00008067          	ret
    40001944:	000c4403          	lbu	s0,0(s8)
    40001948:	00000b13          	li	s6,0
    4000194c:	00270c13          	addi	s8,a4,2
    40001950:	ee0c98e3          	bnez	s9,40001840 <_strtol_l.isra.0+0x90>
    40001954:	03000793          	li	a5,48
    40001958:	08f40863          	beq	s0,a5,400019e8 <_strtol_l.isra.0+0x238>
    4000195c:	00a00493          	li	s1,10
    40001960:	00a00c93          	li	s9,10
    40001964:	fff00913          	li	s2,-1
    40001968:	ee0b06e3          	beqz	s6,40001854 <_strtol_l.isra.0+0xa4>
    4000196c:	03f91913          	slli	s2,s2,0x3f
    40001970:	ee9ff06f          	j	40001858 <_strtol_l.isra.0+0xa8>
    40001974:	f9f7879b          	addiw	a5,a5,-97
    40001978:	f6fae8e3          	bltu	s5,a5,400018e8 <_strtol_l.isra.0+0x138>
    4000197c:	fa94041b          	addiw	s0,s0,-87
    40001980:	f21ff06f          	j	400018a0 <_strtol_l.isra.0+0xf0>
    40001984:	00013783          	ld	a5,0(sp)
    40001988:	f287cee3          	blt	a5,s0,400018c4 <_strtol_l.isra.0+0x114>
    4000198c:	f29ff06f          	j	400018b4 <_strtol_l.isra.0+0x104>
    40001990:	00813703          	ld	a4,8(sp)
    40001994:	02200793          	li	a5,34
    40001998:	00090593          	mv	a1,s2
    4000199c:	00f72023          	sw	a5,0(a4)
    400019a0:	f60a02e3          	beqz	s4,40001904 <_strtol_l.isra.0+0x154>
    400019a4:	fffc0993          	addi	s3,s8,-1
    400019a8:	00090593          	mv	a1,s2
    400019ac:	f55ff06f          	j	40001900 <_strtol_l.isra.0+0x150>
    400019b0:	000c4403          	lbu	s0,0(s8)
    400019b4:	00100b13          	li	s6,1
    400019b8:	00270c13          	addi	s8,a4,2
    400019bc:	e81ff06f          	j	4000183c <_strtol_l.isra.0+0x8c>
    400019c0:	00058913          	mv	s2,a1
    400019c4:	fe1ff06f          	j	400019a4 <_strtol_l.isra.0+0x1f4>
    400019c8:	03000793          	li	a5,48
    400019cc:	00f41a63          	bne	s0,a5,400019e0 <_strtol_l.isra.0+0x230>
    400019d0:	000c4783          	lbu	a5,0(s8)
    400019d4:	05800713          	li	a4,88
    400019d8:	0df7f793          	andi	a5,a5,223
    400019dc:	02e78263          	beq	a5,a4,40001a00 <_strtol_l.isra.0+0x250>
    400019e0:	01000493          	li	s1,16
    400019e4:	e69ff06f          	j	4000184c <_strtol_l.isra.0+0x9c>
    400019e8:	000c4783          	lbu	a5,0(s8)
    400019ec:	05800713          	li	a4,88
    400019f0:	00800493          	li	s1,8
    400019f4:	0df7f793          	andi	a5,a5,223
    400019f8:	00800c93          	li	s9,8
    400019fc:	e4e798e3          	bne	a5,a4,4000184c <_strtol_l.isra.0+0x9c>
    40001a00:	001c4403          	lbu	s0,1(s8)
    40001a04:	01000493          	li	s1,16
    40001a08:	002c0c13          	addi	s8,s8,2
    40001a0c:	01000c93          	li	s9,16
    40001a10:	e3dff06f          	j	4000184c <_strtol_l.isra.0+0x9c>

0000000040001a14 <_strtol_r>:
    40001a14:	d9dff06f          	j	400017b0 <_strtol_l.isra.0>

0000000040001a18 <strtol_l>:
    40001a18:	00029797          	auipc	a5,0x29
    40001a1c:	90078793          	addi	a5,a5,-1792 # 4002a318 <_impure_ptr>
    40001a20:	00060693          	mv	a3,a2
    40001a24:	00058613          	mv	a2,a1
    40001a28:	00050593          	mv	a1,a0
    40001a2c:	0007b503          	ld	a0,0(a5)
    40001a30:	d81ff06f          	j	400017b0 <_strtol_l.isra.0>

0000000040001a34 <strtol>:
    40001a34:	00029797          	auipc	a5,0x29
    40001a38:	8e478793          	addi	a5,a5,-1820 # 4002a318 <_impure_ptr>
    40001a3c:	00060693          	mv	a3,a2
    40001a40:	00058613          	mv	a2,a1
    40001a44:	00050593          	mv	a1,a0
    40001a48:	0007b503          	ld	a0,0(a5)
    40001a4c:	d65ff06f          	j	400017b0 <_strtol_l.isra.0>

0000000040001a50 <_svfprintf_r>:
    40001a50:	d8010113          	addi	sp,sp,-640
    40001a54:	26113c23          	sd	ra,632(sp)
    40001a58:	26813823          	sd	s0,624(sp)
    40001a5c:	25613023          	sd	s6,576(sp)
    40001a60:	00058413          	mv	s0,a1
    40001a64:	00b13823          	sd	a1,16(sp)
    40001a68:	00060b13          	mv	s6,a2
    40001a6c:	00d13c23          	sd	a3,24(sp)
    40001a70:	26913423          	sd	s1,616(sp)
    40001a74:	27213023          	sd	s2,608(sp)
    40001a78:	25313c23          	sd	s3,600(sp)
    40001a7c:	25413823          	sd	s4,592(sp)
    40001a80:	25513423          	sd	s5,584(sp)
    40001a84:	23713c23          	sd	s7,568(sp)
    40001a88:	23813823          	sd	s8,560(sp)
    40001a8c:	23913423          	sd	s9,552(sp)
    40001a90:	23a13023          	sd	s10,544(sp)
    40001a94:	21b13c23          	sd	s11,536(sp)
    40001a98:	04a13423          	sd	a0,72(sp)
    40001a9c:	42d070ef          	jal	ra,400096c8 <_localeconv_r>
    40001aa0:	00053783          	ld	a5,0(a0)
    40001aa4:	00078513          	mv	a0,a5
    40001aa8:	06f13023          	sd	a5,96(sp)
    40001aac:	a65ff0ef          	jal	ra,40001510 <strlen>
    40001ab0:	01045783          	lhu	a5,16(s0)
    40001ab4:	04a13823          	sd	a0,80(sp)
    40001ab8:	10013023          	sd	zero,256(sp)
    40001abc:	10013423          	sd	zero,264(sp)
    40001ac0:	0807f793          	andi	a5,a5,128
    40001ac4:	00078863          	beqz	a5,40001ad4 <_svfprintf_r+0x84>
    40001ac8:	01843783          	ld	a5,24(s0)
    40001acc:	00079463          	bnez	a5,40001ad4 <_svfprintf_r+0x84>
    40001ad0:	5f00106f          	j	400030c0 <_svfprintf_r+0x1670>
    40001ad4:	19010793          	addi	a5,sp,400
    40001ad8:	000b0d93          	mv	s11,s6
    40001adc:	10f13823          	sd	a5,272(sp)
    40001ae0:	00078313          	mv	t1,a5
    40001ae4:	000dc783          	lbu	a5,0(s11)
    40001ae8:	12013023          	sd	zero,288(sp)
    40001aec:	10012c23          	sw	zero,280(sp)
    40001af0:	02013823          	sd	zero,48(sp)
    40001af4:	04013c23          	sd	zero,88(sp)
    40001af8:	06013823          	sd	zero,112(sp)
    40001afc:	08013023          	sd	zero,128(sp)
    40001b00:	08013823          	sd	zero,144(sp)
    40001b04:	06013c23          	sd	zero,120(sp)
    40001b08:	00013423          	sd	zero,8(sp)
    40001b0c:	01000d13          	li	s10,16
    40001b10:	00026c17          	auipc	s8,0x26
    40001b14:	898c0c13          	addi	s8,s8,-1896 # 400273a8 <zeroes.4524>
    40001b18:	04813a83          	ld	s5,72(sp)
    40001b1c:	6c078863          	beqz	a5,400021ec <_svfprintf_r+0x79c>
    40001b20:	02500693          	li	a3,37
    40001b24:	00d79463          	bne	a5,a3,40001b2c <_svfprintf_r+0xdc>
    40001b28:	48c0106f          	j	40002fb4 <_svfprintf_r+0x1564>
    40001b2c:	000d8413          	mv	s0,s11
    40001b30:	00c0006f          	j	40001b3c <_svfprintf_r+0xec>
    40001b34:	0cd78663          	beq	a5,a3,40001c00 <_svfprintf_r+0x1b0>
    40001b38:	00048413          	mv	s0,s1
    40001b3c:	00144783          	lbu	a5,1(s0)
    40001b40:	00140493          	addi	s1,s0,1
    40001b44:	fe0798e3          	bnez	a5,40001b34 <_svfprintf_r+0xe4>
    40001b48:	41b4893b          	subw	s2,s1,s11
    40001b4c:	6a090063          	beqz	s2,400021ec <_svfprintf_r+0x79c>
    40001b50:	12013683          	ld	a3,288(sp)
    40001b54:	11812783          	lw	a5,280(sp)
    40001b58:	01b33023          	sd	s11,0(t1)
    40001b5c:	012686b3          	add	a3,a3,s2
    40001b60:	0017879b          	addiw	a5,a5,1
    40001b64:	01233423          	sd	s2,8(t1)
    40001b68:	12d13023          	sd	a3,288(sp)
    40001b6c:	10f12c23          	sw	a5,280(sp)
    40001b70:	0007869b          	sext.w	a3,a5
    40001b74:	00700793          	li	a5,7
    40001b78:	01030313          	addi	t1,t1,16
    40001b7c:	08d7c863          	blt	a5,a3,40001c0c <_svfprintf_r+0x1bc>
    40001b80:	00813703          	ld	a4,8(sp)
    40001b84:	00144783          	lbu	a5,1(s0)
    40001b88:	00e9073b          	addw	a4,s2,a4
    40001b8c:	00e13423          	sd	a4,8(sp)
    40001b90:	64078e63          	beqz	a5,400021ec <_svfprintf_r+0x79c>
    40001b94:	00148913          	addi	s2,s1,1
    40001b98:	0014c403          	lbu	s0,1(s1)
    40001b9c:	0c010fa3          	sb	zero,223(sp)
    40001ba0:	fff00b93          	li	s7,-1
    40001ba4:	00000993          	li	s3,0
    40001ba8:	00000493          	li	s1,0
    40001bac:	00900a13          	li	s4,9
    40001bb0:	02a00b13          	li	s6,42
    40001bb4:	00030c93          	mv	s9,t1
    40001bb8:	00190913          	addi	s2,s2,1
    40001bbc:	0004041b          	sext.w	s0,s0
    40001bc0:	05a00693          	li	a3,90
    40001bc4:	fe04079b          	addiw	a5,s0,-32
    40001bc8:	0007871b          	sext.w	a4,a5
    40001bcc:	1ce6e263          	bltu	a3,a4,40001d90 <_svfprintf_r+0x340>
    40001bd0:	02079793          	slli	a5,a5,0x20
    40001bd4:	00025717          	auipc	a4,0x25
    40001bd8:	65470713          	addi	a4,a4,1620 # 40027228 <_free_r+0x1a3c>
    40001bdc:	01e7d793          	srli	a5,a5,0x1e
    40001be0:	00e787b3          	add	a5,a5,a4
    40001be4:	0007a783          	lw	a5,0(a5)
    40001be8:	00e787b3          	add	a5,a5,a4
    40001bec:	00078067          	jr	a5
    40001bf0:	0104e493          	ori	s1,s1,16
    40001bf4:	0004849b          	sext.w	s1,s1
    40001bf8:	00094403          	lbu	s0,0(s2)
    40001bfc:	fbdff06f          	j	40001bb8 <_svfprintf_r+0x168>
    40001c00:	41b4893b          	subw	s2,s1,s11
    40001c04:	f80908e3          	beqz	s2,40001b94 <_svfprintf_r+0x144>
    40001c08:	f49ff06f          	j	40001b50 <_svfprintf_r+0x100>
    40001c0c:	01013583          	ld	a1,16(sp)
    40001c10:	11010613          	addi	a2,sp,272
    40001c14:	000a8513          	mv	a0,s5
    40001c18:	7e9080ef          	jal	ra,4000ac00 <__ssprint_r>
    40001c1c:	02051a63          	bnez	a0,40001c50 <_svfprintf_r+0x200>
    40001c20:	19010313          	addi	t1,sp,400
    40001c24:	f5dff06f          	j	40001b80 <_svfprintf_r+0x130>
    40001c28:	01013583          	ld	a1,16(sp)
    40001c2c:	11010613          	addi	a2,sp,272
    40001c30:	000a8513          	mv	a0,s5
    40001c34:	7cd080ef          	jal	ra,4000ac00 <__ssprint_r>
    40001c38:	58050663          	beqz	a0,400021c4 <_svfprintf_r+0x774>
    40001c3c:	02013783          	ld	a5,32(sp)
    40001c40:	00078863          	beqz	a5,40001c50 <_svfprintf_r+0x200>
    40001c44:	02013583          	ld	a1,32(sp)
    40001c48:	04813503          	ld	a0,72(sp)
    40001c4c:	3a1230ef          	jal	ra,400257ec <_free_r>
    40001c50:	01013783          	ld	a5,16(sp)
    40001c54:	0107d783          	lhu	a5,16(a5)
    40001c58:	0407f793          	andi	a5,a5,64
    40001c5c:	00078463          	beqz	a5,40001c64 <_svfprintf_r+0x214>
    40001c60:	2c80206f          	j	40003f28 <_svfprintf_r+0x24d8>
    40001c64:	27813083          	ld	ra,632(sp)
    40001c68:	27013403          	ld	s0,624(sp)
    40001c6c:	00813503          	ld	a0,8(sp)
    40001c70:	26813483          	ld	s1,616(sp)
    40001c74:	26013903          	ld	s2,608(sp)
    40001c78:	25813983          	ld	s3,600(sp)
    40001c7c:	25013a03          	ld	s4,592(sp)
    40001c80:	24813a83          	ld	s5,584(sp)
    40001c84:	24013b03          	ld	s6,576(sp)
    40001c88:	23813b83          	ld	s7,568(sp)
    40001c8c:	23013c03          	ld	s8,560(sp)
    40001c90:	22813c83          	ld	s9,552(sp)
    40001c94:	22013d03          	ld	s10,544(sp)
    40001c98:	21813d83          	ld	s11,536(sp)
    40001c9c:	28010113          	addi	sp,sp,640
    40001ca0:	00008067          	ret
    40001ca4:	01813683          	ld	a3,24(sp)
    40001ca8:	00027797          	auipc	a5,0x27
    40001cac:	7c878793          	addi	a5,a5,1992 # 40029470 <finsh_name_table+0x3a8>
    40001cb0:	04f13c23          	sd	a5,88(sp)
    40001cb4:	0204f793          	andi	a5,s1,32
    40001cb8:	000c8313          	mv	t1,s9
    40001cbc:	00868713          	addi	a4,a3,8
    40001cc0:	10078863          	beqz	a5,40001dd0 <_svfprintf_r+0x380>
    40001cc4:	0006bb03          	ld	s6,0(a3)
    40001cc8:	0014f793          	andi	a5,s1,1
    40001ccc:	00078e63          	beqz	a5,40001ce8 <_svfprintf_r+0x298>
    40001cd0:	000b0c63          	beqz	s6,40001ce8 <_svfprintf_r+0x298>
    40001cd4:	0024e493          	ori	s1,s1,2
    40001cd8:	03000793          	li	a5,48
    40001cdc:	0ef10023          	sb	a5,224(sp)
    40001ce0:	0e8100a3          	sb	s0,225(sp)
    40001ce4:	0004849b          	sext.w	s1,s1
    40001ce8:	bff4f813          	andi	a6,s1,-1025
    40001cec:	00080a1b          	sext.w	s4,a6
    40001cf0:	00e13c23          	sd	a4,24(sp)
    40001cf4:	00200793          	li	a5,2
    40001cf8:	0c010fa3          	sb	zero,223(sp)
    40001cfc:	fff00713          	li	a4,-1
    40001d00:	32eb8263          	beq	s7,a4,40002024 <_svfprintf_r+0x5d4>
    40001d04:	f7fa7493          	andi	s1,s4,-129
    40001d08:	0004849b          	sext.w	s1,s1
    40001d0c:	660b10e3          	bnez	s6,40002b6c <_svfprintf_r+0x111c>
    40001d10:	000b8463          	beqz	s7,40001d18 <_svfprintf_r+0x2c8>
    40001d14:	0500106f          	j	40002d64 <_svfprintf_r+0x1314>
    40001d18:	2a079663          	bnez	a5,40001fc4 <_svfprintf_r+0x574>
    40001d1c:	001a7c93          	andi	s9,s4,1
    40001d20:	18c10d93          	addi	s11,sp,396
    40001d24:	000c8463          	beqz	s9,40001d2c <_svfprintf_r+0x2dc>
    40001d28:	2e40106f          	j	4000300c <_svfprintf_r+0x15bc>
    40001d2c:	000c8a1b          	sext.w	s4,s9
    40001d30:	017cd463          	bge	s9,s7,40001d38 <_svfprintf_r+0x2e8>
    40001d34:	000b8a1b          	sext.w	s4,s7
    40001d38:	0df14783          	lbu	a5,223(sp)
    40001d3c:	02013023          	sd	zero,32(sp)
    40001d40:	04013023          	sd	zero,64(sp)
    40001d44:	02013c23          	sd	zero,56(sp)
    40001d48:	02013423          	sd	zero,40(sp)
    40001d4c:	36078a63          	beqz	a5,400020c0 <_svfprintf_r+0x670>
    40001d50:	001a0a1b          	addiw	s4,s4,1
    40001d54:	36c0006f          	j	400020c0 <_svfprintf_r+0x670>
    40001d58:	00000993          	li	s3,0
    40001d5c:	00190913          	addi	s2,s2,1
    40001d60:	fff94703          	lbu	a4,-1(s2)
    40001d64:	0029979b          	slliw	a5,s3,0x2
    40001d68:	013787bb          	addw	a5,a5,s3
    40001d6c:	fd04041b          	addiw	s0,s0,-48
    40001d70:	0017979b          	slliw	a5,a5,0x1
    40001d74:	fd07061b          	addiw	a2,a4,-48
    40001d78:	00f409bb          	addw	s3,s0,a5
    40001d7c:	0007041b          	sext.w	s0,a4
    40001d80:	fcca7ee3          	bgeu	s4,a2,40001d5c <_svfprintf_r+0x30c>
    40001d84:	fe04079b          	addiw	a5,s0,-32
    40001d88:	0007871b          	sext.w	a4,a5
    40001d8c:	e4e6f2e3          	bgeu	a3,a4,40001bd0 <_svfprintf_r+0x180>
    40001d90:	000c8313          	mv	t1,s9
    40001d94:	44040c63          	beqz	s0,400021ec <_svfprintf_r+0x79c>
    40001d98:	12810423          	sb	s0,296(sp)
    40001d9c:	0c010fa3          	sb	zero,223(sp)
    40001da0:	00100a13          	li	s4,1
    40001da4:	00100c93          	li	s9,1
    40001da8:	12810d93          	addi	s11,sp,296
    40001dac:	3000006f          	j	400020ac <_svfprintf_r+0x65c>
    40001db0:	01813683          	ld	a3,24(sp)
    40001db4:	00027797          	auipc	a5,0x27
    40001db8:	6d478793          	addi	a5,a5,1748 # 40029488 <finsh_name_table+0x3c0>
    40001dbc:	04f13c23          	sd	a5,88(sp)
    40001dc0:	0204f793          	andi	a5,s1,32
    40001dc4:	000c8313          	mv	t1,s9
    40001dc8:	00868713          	addi	a4,a3,8
    40001dcc:	ee079ce3          	bnez	a5,40001cc4 <_svfprintf_r+0x274>
    40001dd0:	0104f793          	andi	a5,s1,16
    40001dd4:	00078463          	beqz	a5,40001ddc <_svfprintf_r+0x38c>
    40001dd8:	2840106f          	j	4000305c <_svfprintf_r+0x160c>
    40001ddc:	01813683          	ld	a3,24(sp)
    40001de0:	0404f793          	andi	a5,s1,64
    40001de4:	0006ab03          	lw	s6,0(a3)
    40001de8:	00079463          	bnez	a5,40001df0 <_svfprintf_r+0x3a0>
    40001dec:	0e50106f          	j	400036d0 <_svfprintf_r+0x1c80>
    40001df0:	030b1b13          	slli	s6,s6,0x30
    40001df4:	030b5b13          	srli	s6,s6,0x30
    40001df8:	ed1ff06f          	j	40001cc8 <_svfprintf_r+0x278>
    40001dfc:	00094403          	lbu	s0,0(s2)
    40001e00:	0044e493          	ori	s1,s1,4
    40001e04:	0004849b          	sext.w	s1,s1
    40001e08:	db1ff06f          	j	40001bb8 <_svfprintf_r+0x168>
    40001e0c:	00094403          	lbu	s0,0(s2)
    40001e10:	00190793          	addi	a5,s2,1
    40001e14:	01641463          	bne	s0,s6,40001e1c <_svfprintf_r+0x3cc>
    40001e18:	2e00206f          	j	400040f8 <_svfprintf_r+0x26a8>
    40001e1c:	fd04071b          	addiw	a4,s0,-48
    40001e20:	00078913          	mv	s2,a5
    40001e24:	00000b93          	li	s7,0
    40001e28:	d8ea6ee3          	bltu	s4,a4,40001bc4 <_svfprintf_r+0x174>
    40001e2c:	00190913          	addi	s2,s2,1
    40001e30:	002b979b          	slliw	a5,s7,0x2
    40001e34:	fff94603          	lbu	a2,-1(s2)
    40001e38:	017787bb          	addw	a5,a5,s7
    40001e3c:	0017979b          	slliw	a5,a5,0x1
    40001e40:	00e78bbb          	addw	s7,a5,a4
    40001e44:	fd06071b          	addiw	a4,a2,-48
    40001e48:	feea72e3          	bgeu	s4,a4,40001e2c <_svfprintf_r+0x3dc>
    40001e4c:	00060413          	mv	s0,a2
    40001e50:	d75ff06f          	j	40001bc4 <_svfprintf_r+0x174>
    40001e54:	0804e493          	ori	s1,s1,128
    40001e58:	0004849b          	sext.w	s1,s1
    40001e5c:	00094403          	lbu	s0,0(s2)
    40001e60:	d59ff06f          	j	40001bb8 <_svfprintf_r+0x168>
    40001e64:	01813783          	ld	a5,24(sp)
    40001e68:	0c010fa3          	sb	zero,223(sp)
    40001e6c:	000c8313          	mv	t1,s9
    40001e70:	0007bd83          	ld	s11,0(a5)
    40001e74:	00878b13          	addi	s6,a5,8
    40001e78:	000d9463          	bnez	s11,40001e80 <_svfprintf_r+0x430>
    40001e7c:	2740106f          	j	400030f0 <_svfprintf_r+0x16a0>
    40001e80:	fff00793          	li	a5,-1
    40001e84:	00fb9463          	bne	s7,a5,40001e8c <_svfprintf_r+0x43c>
    40001e88:	7780106f          	j	40003600 <_svfprintf_r+0x1bb0>
    40001e8c:	000b8613          	mv	a2,s7
    40001e90:	00000593          	li	a1,0
    40001e94:	000d8513          	mv	a0,s11
    40001e98:	01913c23          	sd	s9,24(sp)
    40001e9c:	15d070ef          	jal	ra,400097f8 <memchr>
    40001ea0:	02a13023          	sd	a0,32(sp)
    40001ea4:	01813303          	ld	t1,24(sp)
    40001ea8:	00051463          	bnez	a0,40001eb0 <_svfprintf_r+0x460>
    40001eac:	3d10106f          	j	40003a7c <_svfprintf_r+0x202c>
    40001eb0:	02013783          	ld	a5,32(sp)
    40001eb4:	01613c23          	sd	s6,24(sp)
    40001eb8:	02013023          	sd	zero,32(sp)
    40001ebc:	41b78cbb          	subw	s9,a5,s11
    40001ec0:	fffcca13          	not	s4,s9
    40001ec4:	0df14783          	lbu	a5,223(sp)
    40001ec8:	43fa5a13          	srai	s4,s4,0x3f
    40001ecc:	014cfa33          	and	s4,s9,s4
    40001ed0:	04013023          	sd	zero,64(sp)
    40001ed4:	02013c23          	sd	zero,56(sp)
    40001ed8:	02013423          	sd	zero,40(sp)
    40001edc:	000a0a1b          	sext.w	s4,s4
    40001ee0:	00000b93          	li	s7,0
    40001ee4:	e60796e3          	bnez	a5,40001d50 <_svfprintf_r+0x300>
    40001ee8:	1d80006f          	j	400020c0 <_svfprintf_r+0x670>
    40001eec:	01813703          	ld	a4,24(sp)
    40001ef0:	0104e813          	ori	a6,s1,16
    40001ef4:	000c8313          	mv	t1,s9
    40001ef8:	0008049b          	sext.w	s1,a6
    40001efc:	00870713          	addi	a4,a4,8
    40001f00:	01813783          	ld	a5,24(sp)
    40001f04:	0007bb03          	ld	s6,0(a5)
    40001f08:	00e13c23          	sd	a4,24(sp)
    40001f0c:	bff4f813          	andi	a6,s1,-1025
    40001f10:	00080a1b          	sext.w	s4,a6
    40001f14:	00000793          	li	a5,0
    40001f18:	de1ff06f          	j	40001cf8 <_svfprintf_r+0x2a8>
    40001f1c:	01813783          	ld	a5,24(sp)
    40001f20:	0104e813          	ori	a6,s1,16
    40001f24:	000c8313          	mv	t1,s9
    40001f28:	00080a1b          	sext.w	s4,a6
    40001f2c:	00878713          	addi	a4,a5,8
    40001f30:	01813783          	ld	a5,24(sp)
    40001f34:	0007bb03          	ld	s6,0(a5)
    40001f38:	00100793          	li	a5,1
    40001f3c:	00e13c23          	sd	a4,24(sp)
    40001f40:	db9ff06f          	j	40001cf8 <_svfprintf_r+0x2a8>
    40001f44:	00094403          	lbu	s0,0(s2)
    40001f48:	06800793          	li	a5,104
    40001f4c:	00f41463          	bne	s0,a5,40001f54 <_svfprintf_r+0x504>
    40001f50:	15c0106f          	j	400030ac <_svfprintf_r+0x165c>
    40001f54:	0404e493          	ori	s1,s1,64
    40001f58:	0004849b          	sext.w	s1,s1
    40001f5c:	c5dff06f          	j	40001bb8 <_svfprintf_r+0x168>
    40001f60:	01813703          	ld	a4,24(sp)
    40001f64:	0204f793          	andi	a5,s1,32
    40001f68:	000c8313          	mv	t1,s9
    40001f6c:	00870713          	addi	a4,a4,8
    40001f70:	00078463          	beqz	a5,40001f78 <_svfprintf_r+0x528>
    40001f74:	0a80106f          	j	4000301c <_svfprintf_r+0x15cc>
    40001f78:	0104f793          	andi	a5,s1,16
    40001f7c:	00078463          	beqz	a5,40001f84 <_svfprintf_r+0x534>
    40001f80:	09c0106f          	j	4000301c <_svfprintf_r+0x15cc>
    40001f84:	0404f793          	andi	a5,s1,64
    40001f88:	00079463          	bnez	a5,40001f90 <_svfprintf_r+0x540>
    40001f8c:	7100106f          	j	4000369c <_svfprintf_r+0x1c4c>
    40001f90:	01813783          	ld	a5,24(sp)
    40001f94:	00048a13          	mv	s4,s1
    40001f98:	00e13c23          	sd	a4,24(sp)
    40001f9c:	00079b03          	lh	s6,0(a5)
    40001fa0:	000b0793          	mv	a5,s6
    40001fa4:	0607c463          	bltz	a5,4000200c <_svfprintf_r+0x5bc>
    40001fa8:	fff00793          	li	a5,-1
    40001fac:	06fb8ce3          	beq	s7,a5,40002824 <_svfprintf_r+0xdd4>
    40001fb0:	f7fa7813          	andi	a6,s4,-129
    40001fb4:	0008049b          	sext.w	s1,a6
    40001fb8:	060b14e3          	bnez	s6,40002820 <_svfprintf_r+0xdd0>
    40001fbc:	000b8463          	beqz	s7,40001fc4 <_svfprintf_r+0x574>
    40001fc0:	0c50106f          	j	40003884 <_svfprintf_r+0x1e34>
    40001fc4:	00000b93          	li	s7,0
    40001fc8:	00000c93          	li	s9,0
    40001fcc:	18c10d93          	addi	s11,sp,396
    40001fd0:	d5dff06f          	j	40001d2c <_svfprintf_r+0x2dc>
    40001fd4:	0084e493          	ori	s1,s1,8
    40001fd8:	0004849b          	sext.w	s1,s1
    40001fdc:	00094403          	lbu	s0,0(s2)
    40001fe0:	bd9ff06f          	j	40001bb8 <_svfprintf_r+0x168>
    40001fe4:	01813783          	ld	a5,24(sp)
    40001fe8:	0104e813          	ori	a6,s1,16
    40001fec:	000c8313          	mv	t1,s9
    40001ff0:	00080a1b          	sext.w	s4,a6
    40001ff4:	00878713          	addi	a4,a5,8
    40001ff8:	01813783          	ld	a5,24(sp)
    40001ffc:	0007b783          	ld	a5,0(a5)
    40002000:	00e13c23          	sd	a4,24(sp)
    40002004:	00078b13          	mv	s6,a5
    40002008:	fa07d0e3          	bgez	a5,40001fa8 <_svfprintf_r+0x558>
    4000200c:	02d00793          	li	a5,45
    40002010:	0cf10fa3          	sb	a5,223(sp)
    40002014:	fff00713          	li	a4,-1
    40002018:	41600b33          	neg	s6,s6
    4000201c:	00100793          	li	a5,1
    40002020:	ceeb92e3          	bne	s7,a4,40001d04 <_svfprintf_r+0x2b4>
    40002024:	00100713          	li	a4,1
    40002028:	7ee78e63          	beq	a5,a4,40002824 <_svfprintf_r+0xdd4>
    4000202c:	00200713          	li	a4,2
    40002030:	54e784e3          	beq	a5,a4,40002d78 <_svfprintf_r+0x1328>
    40002034:	18c10c93          	addi	s9,sp,396
    40002038:	000c8693          	mv	a3,s9
    4000203c:	0080006f          	j	40002044 <_svfprintf_r+0x5f4>
    40002040:	000d8693          	mv	a3,s11
    40002044:	007b7793          	andi	a5,s6,7
    40002048:	03078793          	addi	a5,a5,48
    4000204c:	fef68fa3          	sb	a5,-1(a3)
    40002050:	003b5b13          	srli	s6,s6,0x3
    40002054:	fff68d93          	addi	s11,a3,-1
    40002058:	fe0b14e3          	bnez	s6,40002040 <_svfprintf_r+0x5f0>
    4000205c:	001a7613          	andi	a2,s4,1
    40002060:	00060ce3          	beqz	a2,40002878 <_svfprintf_r+0xe28>
    40002064:	03000613          	li	a2,48
    40002068:	00c788e3          	beq	a5,a2,40002878 <_svfprintf_r+0xe28>
    4000206c:	ffe68693          	addi	a3,a3,-2
    40002070:	fecd8fa3          	sb	a2,-1(s11)
    40002074:	40dc8cbb          	subw	s9,s9,a3
    40002078:	000a0493          	mv	s1,s4
    4000207c:	00068d93          	mv	s11,a3
    40002080:	cadff06f          	j	40001d2c <_svfprintf_r+0x2dc>
    40002084:	01813703          	ld	a4,24(sp)
    40002088:	000c8313          	mv	t1,s9
    4000208c:	0c010fa3          	sb	zero,223(sp)
    40002090:	00072783          	lw	a5,0(a4)
    40002094:	00870713          	addi	a4,a4,8
    40002098:	00e13c23          	sd	a4,24(sp)
    4000209c:	12f10423          	sb	a5,296(sp)
    400020a0:	00100a13          	li	s4,1
    400020a4:	00100c93          	li	s9,1
    400020a8:	12810d93          	addi	s11,sp,296
    400020ac:	02013023          	sd	zero,32(sp)
    400020b0:	00000b93          	li	s7,0
    400020b4:	04013023          	sd	zero,64(sp)
    400020b8:	02013c23          	sd	zero,56(sp)
    400020bc:	02013423          	sd	zero,40(sp)
    400020c0:	0024fe93          	andi	t4,s1,2
    400020c4:	000e8e9b          	sext.w	t4,t4
    400020c8:	000e8463          	beqz	t4,400020d0 <_svfprintf_r+0x680>
    400020cc:	002a0a1b          	addiw	s4,s4,2
    400020d0:	0844ff13          	andi	t5,s1,132
    400020d4:	12013783          	ld	a5,288(sp)
    400020d8:	000f1663          	bnez	t5,400020e4 <_svfprintf_r+0x694>
    400020dc:	4149883b          	subw	a6,s3,s4
    400020e0:	29004ae3          	bgtz	a6,40002b74 <_svfprintf_r+0x1124>
    400020e4:	0df14683          	lbu	a3,223(sp)
    400020e8:	02068c63          	beqz	a3,40002120 <_svfprintf_r+0x6d0>
    400020ec:	11812683          	lw	a3,280(sp)
    400020f0:	0df10613          	addi	a2,sp,223
    400020f4:	00c33023          	sd	a2,0(t1)
    400020f8:	0016869b          	addiw	a3,a3,1
    400020fc:	00100613          	li	a2,1
    40002100:	00178793          	addi	a5,a5,1
    40002104:	00c33423          	sd	a2,8(t1)
    40002108:	10d12c23          	sw	a3,280(sp)
    4000210c:	0006861b          	sext.w	a2,a3
    40002110:	12f13023          	sd	a5,288(sp)
    40002114:	00700693          	li	a3,7
    40002118:	01030313          	addi	t1,t1,16
    4000211c:	0ec6ca63          	blt	a3,a2,40002210 <_svfprintf_r+0x7c0>
    40002120:	020e8c63          	beqz	t4,40002158 <_svfprintf_r+0x708>
    40002124:	11812683          	lw	a3,280(sp)
    40002128:	0e010613          	addi	a2,sp,224
    4000212c:	00c33023          	sd	a2,0(t1)
    40002130:	0016869b          	addiw	a3,a3,1
    40002134:	00200613          	li	a2,2
    40002138:	00278793          	addi	a5,a5,2
    4000213c:	00c33423          	sd	a2,8(t1)
    40002140:	10d12c23          	sw	a3,280(sp)
    40002144:	0006861b          	sext.w	a2,a3
    40002148:	12f13023          	sd	a5,288(sp)
    4000214c:	00700693          	li	a3,7
    40002150:	01030313          	addi	t1,t1,16
    40002154:	32c6cae3          	blt	a3,a2,40002c88 <_svfprintf_r+0x1238>
    40002158:	08000693          	li	a3,128
    4000215c:	04df08e3          	beq	t5,a3,400029ac <_svfprintf_r+0xf5c>
    40002160:	419b8bbb          	subw	s7,s7,s9
    40002164:	137048e3          	bgtz	s7,40002a94 <_svfprintf_r+0x1044>
    40002168:	1004f693          	andi	a3,s1,256
    4000216c:	70069c63          	bnez	a3,40002884 <_svfprintf_r+0xe34>
    40002170:	11812703          	lw	a4,280(sp)
    40002174:	019787b3          	add	a5,a5,s9
    40002178:	01b33023          	sd	s11,0(t1)
    4000217c:	0017069b          	addiw	a3,a4,1
    40002180:	01933423          	sd	s9,8(t1)
    40002184:	12f13023          	sd	a5,288(sp)
    40002188:	10d12c23          	sw	a3,280(sp)
    4000218c:	00700713          	li	a4,7
    40002190:	1ad74c63          	blt	a4,a3,40002348 <_svfprintf_r+0x8f8>
    40002194:	01030313          	addi	t1,t1,16
    40002198:	0044f493          	andi	s1,s1,4
    4000219c:	00048663          	beqz	s1,400021a8 <_svfprintf_r+0x758>
    400021a0:	4149843b          	subw	s0,s3,s4
    400021a4:	308048e3          	bgtz	s0,40002cb4 <_svfprintf_r+0x1264>
    400021a8:	00098713          	mv	a4,s3
    400021ac:	0149d463          	bge	s3,s4,400021b4 <_svfprintf_r+0x764>
    400021b0:	000a0713          	mv	a4,s4
    400021b4:	00813683          	ld	a3,8(sp)
    400021b8:	00d7073b          	addw	a4,a4,a3
    400021bc:	00e13423          	sd	a4,8(sp)
    400021c0:	a60794e3          	bnez	a5,40001c28 <_svfprintf_r+0x1d8>
    400021c4:	02013783          	ld	a5,32(sp)
    400021c8:	10012c23          	sw	zero,280(sp)
    400021cc:	00078863          	beqz	a5,400021dc <_svfprintf_r+0x78c>
    400021d0:	02013583          	ld	a1,32(sp)
    400021d4:	000a8513          	mv	a0,s5
    400021d8:	614230ef          	jal	ra,400257ec <_free_r>
    400021dc:	19010313          	addi	t1,sp,400
    400021e0:	00090d93          	mv	s11,s2
    400021e4:	000dc783          	lbu	a5,0(s11)
    400021e8:	92079ce3          	bnez	a5,40001b20 <_svfprintf_r+0xd0>
    400021ec:	12013783          	ld	a5,288(sp)
    400021f0:	a60780e3          	beqz	a5,40001c50 <_svfprintf_r+0x200>
    400021f4:	01013403          	ld	s0,16(sp)
    400021f8:	04813503          	ld	a0,72(sp)
    400021fc:	11010613          	addi	a2,sp,272
    40002200:	00040593          	mv	a1,s0
    40002204:	1fd080ef          	jal	ra,4000ac00 <__ssprint_r>
    40002208:	01045783          	lhu	a5,16(s0)
    4000220c:	a4dff06f          	j	40001c58 <_svfprintf_r+0x208>
    40002210:	01013583          	ld	a1,16(sp)
    40002214:	11010613          	addi	a2,sp,272
    40002218:	000a8513          	mv	a0,s5
    4000221c:	09e13423          	sd	t5,136(sp)
    40002220:	07d13423          	sd	t4,104(sp)
    40002224:	1dd080ef          	jal	ra,4000ac00 <__ssprint_r>
    40002228:	a0051ae3          	bnez	a0,40001c3c <_svfprintf_r+0x1ec>
    4000222c:	12013783          	ld	a5,288(sp)
    40002230:	19010313          	addi	t1,sp,400
    40002234:	08813f03          	ld	t5,136(sp)
    40002238:	06813e83          	ld	t4,104(sp)
    4000223c:	ee5ff06f          	j	40002120 <_svfprintf_r+0x6d0>
    40002240:	11812583          	lw	a1,280(sp)
    40002244:	03013703          	ld	a4,48(sp)
    40002248:	00178c93          	addi	s9,a5,1
    4000224c:	00100613          	li	a2,1
    40002250:	0015879b          	addiw	a5,a1,1
    40002254:	01b33023          	sd	s11,0(t1)
    40002258:	00078693          	mv	a3,a5
    4000225c:	01030413          	addi	s0,t1,16
    40002260:	4ce650e3          	bge	a2,a4,40002f20 <_svfprintf_r+0x14d0>
    40002264:	00100613          	li	a2,1
    40002268:	10d12c23          	sw	a3,280(sp)
    4000226c:	00c33423          	sd	a2,8(t1)
    40002270:	13913023          	sd	s9,288(sp)
    40002274:	00700693          	li	a3,7
    40002278:	54f6c2e3          	blt	a3,a5,40002fbc <_svfprintf_r+0x156c>
    4000227c:	0017869b          	addiw	a3,a5,1
    40002280:	05013783          	ld	a5,80(sp)
    40002284:	06013703          	ld	a4,96(sp)
    40002288:	10d12c23          	sw	a3,280(sp)
    4000228c:	00fc8cb3          	add	s9,s9,a5
    40002290:	00f43423          	sd	a5,8(s0)
    40002294:	00e43023          	sd	a4,0(s0)
    40002298:	0006879b          	sext.w	a5,a3
    4000229c:	13913023          	sd	s9,288(sp)
    400022a0:	00700693          	li	a3,7
    400022a4:	01040413          	addi	s0,s0,16
    400022a8:	52f6cee3          	blt	a3,a5,40002fe4 <_svfprintf_r+0x1594>
    400022ac:	0017889b          	addiw	a7,a5,1
    400022b0:	04f13023          	sd	a5,64(sp)
    400022b4:	10013503          	ld	a0,256(sp)
    400022b8:	03013783          	ld	a5,48(sp)
    400022bc:	10813583          	ld	a1,264(sp)
    400022c0:	01040313          	addi	t1,s0,16
    400022c4:	00000613          	li	a2,0
    400022c8:	00000693          	li	a3,0
    400022cc:	00088b1b          	sext.w	s6,a7
    400022d0:	03113c23          	sd	a7,56(sp)
    400022d4:	02613423          	sd	t1,40(sp)
    400022d8:	fff78b9b          	addiw	s7,a5,-1
    400022dc:	0f80c0ef          	jal	ra,4000e3d4 <__eqtf2>
    400022e0:	02813303          	ld	t1,40(sp)
    400022e4:	03813883          	ld	a7,56(sp)
    400022e8:	460500e3          	beqz	a0,40002f48 <_svfprintf_r+0x14f8>
    400022ec:	001d8713          	addi	a4,s11,1
    400022f0:	017c8cb3          	add	s9,s9,s7
    400022f4:	00e43023          	sd	a4,0(s0)
    400022f8:	01743423          	sd	s7,8(s0)
    400022fc:	13913023          	sd	s9,288(sp)
    40002300:	11112c23          	sw	a7,280(sp)
    40002304:	00700713          	li	a4,7
    40002308:	01675463          	bge	a4,s6,40002310 <_svfprintf_r+0x8c0>
    4000230c:	0000106f          	j	4000330c <_svfprintf_r+0x18bc>
    40002310:	04013783          	ld	a5,64(sp)
    40002314:	02040713          	addi	a4,s0,32
    40002318:	00030413          	mv	s0,t1
    4000231c:	00278b1b          	addiw	s6,a5,2
    40002320:	00070313          	mv	t1,a4
    40002324:	07013683          	ld	a3,112(sp)
    40002328:	0f010713          	addi	a4,sp,240
    4000232c:	00e43023          	sd	a4,0(s0)
    40002330:	019687b3          	add	a5,a3,s9
    40002334:	00d43423          	sd	a3,8(s0)
    40002338:	12f13023          	sd	a5,288(sp)
    4000233c:	11612c23          	sw	s6,280(sp)
    40002340:	00700713          	li	a4,7
    40002344:	e5675ae3          	bge	a4,s6,40002198 <_svfprintf_r+0x748>
    40002348:	01013583          	ld	a1,16(sp)
    4000234c:	11010613          	addi	a2,sp,272
    40002350:	000a8513          	mv	a0,s5
    40002354:	0ad080ef          	jal	ra,4000ac00 <__ssprint_r>
    40002358:	8e0512e3          	bnez	a0,40001c3c <_svfprintf_r+0x1ec>
    4000235c:	12013783          	ld	a5,288(sp)
    40002360:	19010313          	addi	t1,sp,400
    40002364:	e35ff06f          	j	40002198 <_svfprintf_r+0x748>
    40002368:	0084f793          	andi	a5,s1,8
    4000236c:	000c8313          	mv	t1,s9
    40002370:	4c0782e3          	beqz	a5,40003034 <_svfprintf_r+0x15e4>
    40002374:	01813783          	ld	a5,24(sp)
    40002378:	00f78793          	addi	a5,a5,15
    4000237c:	ff07f793          	andi	a5,a5,-16
    40002380:	0007b683          	ld	a3,0(a5)
    40002384:	0087b703          	ld	a4,8(a5)
    40002388:	01078793          	addi	a5,a5,16
    4000238c:	00f13c23          	sd	a5,24(sp)
    40002390:	10d13023          	sd	a3,256(sp)
    40002394:	10e13423          	sd	a4,264(sp)
    40002398:	10010513          	addi	a0,sp,256
    4000239c:	02613023          	sd	t1,32(sp)
    400023a0:	2cc070ef          	jal	ra,4000966c <_ldcheck>
    400023a4:	0ea12423          	sw	a0,232(sp)
    400023a8:	00200793          	li	a5,2
    400023ac:	02013303          	ld	t1,32(sp)
    400023b0:	00f51463          	bne	a0,a5,400023b8 <_svfprintf_r+0x968>
    400023b4:	1500106f          	j	40003504 <_svfprintf_r+0x1ab4>
    400023b8:	00100793          	li	a5,1
    400023bc:	00f51463          	bne	a0,a5,400023c4 <_svfprintf_r+0x974>
    400023c0:	3200106f          	j	400036e0 <_svfprintf_r+0x1c90>
    400023c4:	06100793          	li	a5,97
    400023c8:	00f41463          	bne	s0,a5,400023d0 <_svfprintf_r+0x980>
    400023cc:	2710106f          	j	40003e3c <_svfprintf_r+0x23ec>
    400023d0:	04100793          	li	a5,65
    400023d4:	00f41463          	bne	s0,a5,400023dc <_svfprintf_r+0x98c>
    400023d8:	7600106f          	j	40003b38 <_svfprintf_r+0x20e8>
    400023dc:	fdf47713          	andi	a4,s0,-33
    400023e0:	fff00793          	li	a5,-1
    400023e4:	02e13c23          	sd	a4,56(sp)
    400023e8:	00fb9463          	bne	s7,a5,400023f0 <_svfprintf_r+0x9a0>
    400023ec:	4900106f          	j	4000387c <_svfprintf_r+0x1e2c>
    400023f0:	04700793          	li	a5,71
    400023f4:	00f71463          	bne	a4,a5,400023fc <_svfprintf_r+0x9ac>
    400023f8:	2e90106f          	j	40003ee0 <_svfprintf_r+0x2490>
    400023fc:	10813c83          	ld	s9,264(sp)
    40002400:	1004e793          	ori	a5,s1,256
    40002404:	04913023          	sd	s1,64(sp)
    40002408:	0007879b          	sext.w	a5,a5
    4000240c:	10013e83          	ld	t4,256(sp)
    40002410:	000cd463          	bgez	s9,40002418 <_svfprintf_r+0x9c8>
    40002414:	1890106f          	j	40003d9c <_svfprintf_r+0x234c>
    40002418:	06013423          	sd	zero,104(sp)
    4000241c:	00078493          	mv	s1,a5
    40002420:	02013023          	sd	zero,32(sp)
    40002424:	03813703          	ld	a4,56(sp)
    40002428:	04600793          	li	a5,70
    4000242c:	00f71463          	bne	a4,a5,40002434 <_svfprintf_r+0x9e4>
    40002430:	5000106f          	j	40003930 <_svfprintf_r+0x1ee0>
    40002434:	04500793          	li	a5,69
    40002438:	02613823          	sd	t1,48(sp)
    4000243c:	00f71463          	bne	a4,a5,40002444 <_svfprintf_r+0x9f4>
    40002440:	20d0106f          	j	40003e4c <_svfprintf_r+0x23fc>
    40002444:	0e810793          	addi	a5,sp,232
    40002448:	000b8713          	mv	a4,s7
    4000244c:	000e8593          	mv	a1,t4
    40002450:	0f810893          	addi	a7,sp,248
    40002454:	0ec10813          	addi	a6,sp,236
    40002458:	00200693          	li	a3,2
    4000245c:	000c8613          	mv	a2,s9
    40002460:	000a8513          	mv	a0,s5
    40002464:	03d13423          	sd	t4,40(sp)
    40002468:	6e5050ef          	jal	ra,4000834c <_ldtoa_r>
    4000246c:	03813703          	ld	a4,56(sp)
    40002470:	04700793          	li	a5,71
    40002474:	00050d93          	mv	s11,a0
    40002478:	02813e83          	ld	t4,40(sp)
    4000247c:	03013303          	ld	t1,48(sp)
    40002480:	00f70463          	beq	a4,a5,40002488 <_svfprintf_r+0xa38>
    40002484:	4990106f          	j	4000411c <_svfprintf_r+0x26cc>
    40002488:	04013783          	ld	a5,64(sp)
    4000248c:	01750a33          	add	s4,a0,s7
    40002490:	0017f793          	andi	a5,a5,1
    40002494:	00078463          	beqz	a5,4000249c <_svfprintf_r+0xa4c>
    40002498:	4e80106f          	j	40003980 <_svfprintf_r+0x1f30>
    4000249c:	0f813783          	ld	a5,248(sp)
    400024a0:	41b787bb          	subw	a5,a5,s11
    400024a4:	02f13823          	sd	a5,48(sp)
    400024a8:	0e812703          	lw	a4,232(sp)
    400024ac:	04700793          	li	a5,71
    400024b0:	02e13423          	sd	a4,40(sp)
    400024b4:	03813703          	ld	a4,56(sp)
    400024b8:	00f71463          	bne	a4,a5,400024c0 <_svfprintf_r+0xa70>
    400024bc:	3fc0106f          	j	400038b8 <_svfprintf_r+0x1e68>
    400024c0:	03813703          	ld	a4,56(sp)
    400024c4:	04600793          	li	a5,70
    400024c8:	00f71463          	bne	a4,a5,400024d0 <_svfprintf_r+0xa80>
    400024cc:	6440106f          	j	40003b10 <_svfprintf_r+0x20c0>
    400024d0:	02813783          	ld	a5,40(sp)
    400024d4:	03813703          	ld	a4,56(sp)
    400024d8:	04100613          	li	a2,65
    400024dc:	fff78a1b          	addiw	s4,a5,-1
    400024e0:	0f412423          	sw	s4,232(sp)
    400024e4:	0ff47793          	andi	a5,s0,255
    400024e8:	00000693          	li	a3,0
    400024ec:	00c71863          	bne	a4,a2,400024fc <_svfprintf_r+0xaac>
    400024f0:	00f7879b          	addiw	a5,a5,15
    400024f4:	0ff7f793          	andi	a5,a5,255
    400024f8:	00100693          	li	a3,1
    400024fc:	0ef10823          	sb	a5,240(sp)
    40002500:	02b00793          	li	a5,43
    40002504:	000a5a63          	bgez	s4,40002518 <_svfprintf_r+0xac8>
    40002508:	02813783          	ld	a5,40(sp)
    4000250c:	00100a13          	li	s4,1
    40002510:	40fa0a3b          	subw	s4,s4,a5
    40002514:	02d00793          	li	a5,45
    40002518:	0ef108a3          	sb	a5,241(sp)
    4000251c:	00900793          	li	a5,9
    40002520:	0147c463          	blt	a5,s4,40002528 <_svfprintf_r+0xad8>
    40002524:	3190106f          	j	4000403c <_svfprintf_r+0x25ec>
    40002528:	0ff10b13          	addi	s6,sp,255
    4000252c:	000b0c93          	mv	s9,s6
    40002530:	06300493          	li	s1,99
    40002534:	00030b93          	mv	s7,t1
    40002538:	00c0006f          	j	40002544 <_svfprintf_r+0xaf4>
    4000253c:	00060c93          	mv	s9,a2
    40002540:	00050a13          	mv	s4,a0
    40002544:	00a00593          	li	a1,10
    40002548:	000a0513          	mv	a0,s4
    4000254c:	4500d0ef          	jal	ra,4000f99c <__moddi3>
    40002550:	0305051b          	addiw	a0,a0,48
    40002554:	feac8fa3          	sb	a0,-1(s9)
    40002558:	00a00593          	li	a1,10
    4000255c:	000a0513          	mv	a0,s4
    40002560:	3b80d0ef          	jal	ra,4000f918 <__divdi3>
    40002564:	fffc8613          	addi	a2,s9,-1
    40002568:	0005051b          	sext.w	a0,a0
    4000256c:	fd44c8e3          	blt	s1,s4,4000253c <_svfprintf_r+0xaec>
    40002570:	0305079b          	addiw	a5,a0,48
    40002574:	0ff7f793          	andi	a5,a5,255
    40002578:	ffec8693          	addi	a3,s9,-2
    4000257c:	fef60fa3          	sb	a5,-1(a2)
    40002580:	000b8313          	mv	t1,s7
    40002584:	0166e463          	bltu	a3,s6,4000258c <_svfprintf_r+0xb3c>
    40002588:	3a10106f          	j	40004128 <_svfprintf_r+0x26d8>
    4000258c:	0f210613          	addi	a2,sp,242
    40002590:	0080006f          	j	40002598 <_svfprintf_r+0xb48>
    40002594:	0006c783          	lbu	a5,0(a3)
    40002598:	00160613          	addi	a2,a2,1
    4000259c:	00168693          	addi	a3,a3,1
    400025a0:	fef60fa3          	sb	a5,-1(a2)
    400025a4:	ff6698e3          	bne	a3,s6,40002594 <_svfprintf_r+0xb44>
    400025a8:	10110793          	addi	a5,sp,257
    400025ac:	419787b3          	sub	a5,a5,s9
    400025b0:	0f210713          	addi	a4,sp,242
    400025b4:	00f707b3          	add	a5,a4,a5
    400025b8:	0f010693          	addi	a3,sp,240
    400025bc:	40d787bb          	subw	a5,a5,a3
    400025c0:	06f13823          	sd	a5,112(sp)
    400025c4:	07013783          	ld	a5,112(sp)
    400025c8:	03013703          	ld	a4,48(sp)
    400025cc:	00100693          	li	a3,1
    400025d0:	00f70cbb          	addw	s9,a4,a5
    400025d4:	000c8793          	mv	a5,s9
    400025d8:	00e6c463          	blt	a3,a4,400025e0 <_svfprintf_r+0xb90>
    400025dc:	2c50106f          	j	400040a0 <_svfprintf_r+0x2650>
    400025e0:	05013703          	ld	a4,80(sp)
    400025e4:	00e78cbb          	addw	s9,a5,a4
    400025e8:	04013783          	ld	a5,64(sp)
    400025ec:	fffcca13          	not	s4,s9
    400025f0:	43fa5a13          	srai	s4,s4,0x3f
    400025f4:	bff7f493          	andi	s1,a5,-1025
    400025f8:	0004849b          	sext.w	s1,s1
    400025fc:	014cfa33          	and	s4,s9,s4
    40002600:	1004e493          	ori	s1,s1,256
    40002604:	000a0a1b          	sext.w	s4,s4
    40002608:	04013023          	sd	zero,64(sp)
    4000260c:	02013c23          	sd	zero,56(sp)
    40002610:	02013423          	sd	zero,40(sp)
    40002614:	06813783          	ld	a5,104(sp)
    40002618:	00079463          	bnez	a5,40002620 <_svfprintf_r+0xbd0>
    4000261c:	3b40106f          	j	400039d0 <_svfprintf_r+0x1f80>
    40002620:	02d00793          	li	a5,45
    40002624:	0cf10fa3          	sb	a5,223(sp)
    40002628:	00000b93          	li	s7,0
    4000262c:	001a0a1b          	addiw	s4,s4,1
    40002630:	a91ff06f          	j	400020c0 <_svfprintf_r+0x670>
    40002634:	02b00793          	li	a5,43
    40002638:	0cf10fa3          	sb	a5,223(sp)
    4000263c:	00094403          	lbu	s0,0(s2)
    40002640:	d78ff06f          	j	40001bb8 <_svfprintf_r+0x168>
    40002644:	01813783          	ld	a5,24(sp)
    40002648:	00094403          	lbu	s0,0(s2)
    4000264c:	0007a983          	lw	s3,0(a5)
    40002650:	00878793          	addi	a5,a5,8
    40002654:	00f13c23          	sd	a5,24(sp)
    40002658:	d609d063          	bgez	s3,40001bb8 <_svfprintf_r+0x168>
    4000265c:	413009bb          	negw	s3,s3
    40002660:	fa0ff06f          	j	40001e00 <_svfprintf_r+0x3b0>
    40002664:	000a8513          	mv	a0,s5
    40002668:	060070ef          	jal	ra,400096c8 <_localeconv_r>
    4000266c:	00853783          	ld	a5,8(a0)
    40002670:	00078513          	mv	a0,a5
    40002674:	06f13c23          	sd	a5,120(sp)
    40002678:	e99fe0ef          	jal	ra,40001510 <strlen>
    4000267c:	08a13823          	sd	a0,144(sp)
    40002680:	00050413          	mv	s0,a0
    40002684:	000a8513          	mv	a0,s5
    40002688:	040070ef          	jal	ra,400096c8 <_localeconv_r>
    4000268c:	01053783          	ld	a5,16(a0)
    40002690:	08f13023          	sd	a5,128(sp)
    40002694:	18040ce3          	beqz	s0,4000302c <_svfprintf_r+0x15dc>
    40002698:	00094403          	lbu	s0,0(s2)
    4000269c:	d0078e63          	beqz	a5,40001bb8 <_svfprintf_r+0x168>
    400026a0:	0007c783          	lbu	a5,0(a5)
    400026a4:	d0078a63          	beqz	a5,40001bb8 <_svfprintf_r+0x168>
    400026a8:	4004e493          	ori	s1,s1,1024
    400026ac:	0004849b          	sext.w	s1,s1
    400026b0:	d08ff06f          	j	40001bb8 <_svfprintf_r+0x168>
    400026b4:	0014e493          	ori	s1,s1,1
    400026b8:	0004849b          	sext.w	s1,s1
    400026bc:	00094403          	lbu	s0,0(s2)
    400026c0:	cf8ff06f          	j	40001bb8 <_svfprintf_r+0x168>
    400026c4:	0df14783          	lbu	a5,223(sp)
    400026c8:	00094403          	lbu	s0,0(s2)
    400026cc:	ce079663          	bnez	a5,40001bb8 <_svfprintf_r+0x168>
    400026d0:	02000793          	li	a5,32
    400026d4:	0cf10fa3          	sb	a5,223(sp)
    400026d8:	ce0ff06f          	j	40001bb8 <_svfprintf_r+0x168>
    400026dc:	01813703          	ld	a4,24(sp)
    400026e0:	0204f793          	andi	a5,s1,32
    400026e4:	000c8313          	mv	t1,s9
    400026e8:	00870713          	addi	a4,a4,8
    400026ec:	12079ce3          	bnez	a5,40003024 <_svfprintf_r+0x15d4>
    400026f0:	0104f793          	andi	a5,s1,16
    400026f4:	120798e3          	bnez	a5,40003024 <_svfprintf_r+0x15d4>
    400026f8:	01813683          	ld	a3,24(sp)
    400026fc:	0404f793          	andi	a5,s1,64
    40002700:	0006ab03          	lw	s6,0(a3)
    40002704:	76078ee3          	beqz	a5,40003680 <_svfprintf_r+0x1c30>
    40002708:	030b1b13          	slli	s6,s6,0x30
    4000270c:	030b5b13          	srli	s6,s6,0x30
    40002710:	00e13c23          	sd	a4,24(sp)
    40002714:	00048a13          	mv	s4,s1
    40002718:	00100793          	li	a5,1
    4000271c:	ddcff06f          	j	40001cf8 <_svfprintf_r+0x2a8>
    40002720:	0204e493          	ori	s1,s1,32
    40002724:	0004849b          	sext.w	s1,s1
    40002728:	00094403          	lbu	s0,0(s2)
    4000272c:	c8cff06f          	j	40001bb8 <_svfprintf_r+0x168>
    40002730:	01813703          	ld	a4,24(sp)
    40002734:	ffff87b7          	lui	a5,0xffff8
    40002738:	8307c793          	xori	a5,a5,-2000
    4000273c:	0ef11023          	sh	a5,224(sp)
    40002740:	00870793          	addi	a5,a4,8
    40002744:	0024e813          	ori	a6,s1,2
    40002748:	00f13c23          	sd	a5,24(sp)
    4000274c:	00027797          	auipc	a5,0x27
    40002750:	d2478793          	addi	a5,a5,-732 # 40029470 <finsh_name_table+0x3a8>
    40002754:	04f13c23          	sd	a5,88(sp)
    40002758:	000c8313          	mv	t1,s9
    4000275c:	00073b03          	ld	s6,0(a4)
    40002760:	00080a1b          	sext.w	s4,a6
    40002764:	00200793          	li	a5,2
    40002768:	07800413          	li	s0,120
    4000276c:	d8cff06f          	j	40001cf8 <_svfprintf_r+0x2a8>
    40002770:	01813703          	ld	a4,24(sp)
    40002774:	0204f793          	andi	a5,s1,32
    40002778:	000c8313          	mv	t1,s9
    4000277c:	00870713          	addi	a4,a4,8
    40002780:	f8079063          	bnez	a5,40001f00 <_svfprintf_r+0x4b0>
    40002784:	0104f793          	andi	a5,s1,16
    40002788:	f6079c63          	bnez	a5,40001f00 <_svfprintf_r+0x4b0>
    4000278c:	01813683          	ld	a3,24(sp)
    40002790:	0404f793          	andi	a5,s1,64
    40002794:	0006ab03          	lw	s6,0(a3)
    40002798:	720782e3          	beqz	a5,400036bc <_svfprintf_r+0x1c6c>
    4000279c:	030b1b13          	slli	s6,s6,0x30
    400027a0:	030b5b13          	srli	s6,s6,0x30
    400027a4:	00e13c23          	sd	a4,24(sp)
    400027a8:	f64ff06f          	j	40001f0c <_svfprintf_r+0x4bc>
    400027ac:	01813683          	ld	a3,24(sp)
    400027b0:	0204f793          	andi	a5,s1,32
    400027b4:	000c8313          	mv	t1,s9
    400027b8:	0006b703          	ld	a4,0(a3)
    400027bc:	00868693          	addi	a3,a3,8
    400027c0:	00d13c23          	sd	a3,24(sp)
    400027c4:	04079663          	bnez	a5,40002810 <_svfprintf_r+0xdc0>
    400027c8:	0104f793          	andi	a5,s1,16
    400027cc:	04079263          	bnez	a5,40002810 <_svfprintf_r+0xdc0>
    400027d0:	0404f793          	andi	a5,s1,64
    400027d4:	00078463          	beqz	a5,400027dc <_svfprintf_r+0xd8c>
    400027d8:	00c0106f          	j	400037e4 <_svfprintf_r+0x1d94>
    400027dc:	2004f493          	andi	s1,s1,512
    400027e0:	00813783          	ld	a5,8(sp)
    400027e4:	00049463          	bnez	s1,400027ec <_svfprintf_r+0xd9c>
    400027e8:	6ec0106f          	j	40003ed4 <_svfprintf_r+0x2484>
    400027ec:	00f70023          	sb	a5,0(a4)
    400027f0:	00090d93          	mv	s11,s2
    400027f4:	9f1ff06f          	j	400021e4 <_svfprintf_r+0x794>
    400027f8:	00094403          	lbu	s0,0(s2)
    400027fc:	06c00793          	li	a5,108
    40002800:	08f40ce3          	beq	s0,a5,40003098 <_svfprintf_r+0x1648>
    40002804:	0104e493          	ori	s1,s1,16
    40002808:	0004849b          	sext.w	s1,s1
    4000280c:	bacff06f          	j	40001bb8 <_svfprintf_r+0x168>
    40002810:	00813783          	ld	a5,8(sp)
    40002814:	00090d93          	mv	s11,s2
    40002818:	00f73023          	sd	a5,0(a4)
    4000281c:	9c9ff06f          	j	400021e4 <_svfprintf_r+0x794>
    40002820:	00048a13          	mv	s4,s1
    40002824:	00900793          	li	a5,9
    40002828:	3f67e4e3          	bltu	a5,s6,40003410 <_svfprintf_r+0x19c0>
    4000282c:	030b0b1b          	addiw	s6,s6,48
    40002830:	196105a3          	sb	s6,395(sp)
    40002834:	000a0493          	mv	s1,s4
    40002838:	00100c93          	li	s9,1
    4000283c:	18b10d93          	addi	s11,sp,395
    40002840:	cecff06f          	j	40001d2c <_svfprintf_r+0x2dc>
    40002844:	0ff00793          	li	a5,255
    40002848:	42f686e3          	beq	a3,a5,40003474 <_svfprintf_r+0x1a24>
    4000284c:	00900793          	li	a5,9
    40002850:	7337e8e3          	bltu	a5,s3,40003780 <_svfprintf_r+0x1d30>
    40002854:	09213023          	sd	s2,128(sp)
    40002858:	000a8313          	mv	t1,s5
    4000285c:	03813983          	ld	s3,56(sp)
    40002860:	000c8a93          	mv	s5,s9
    40002864:	02013903          	ld	s2,32(sp)
    40002868:	000d8c93          	mv	s9,s11
    4000286c:	00040d93          	mv	s11,s0
    40002870:	02813403          	ld	s0,40(sp)
    40002874:	02913823          	sd	s1,48(sp)
    40002878:	41bc8cbb          	subw	s9,s9,s11
    4000287c:	000a0493          	mv	s1,s4
    40002880:	cacff06f          	j	40001d2c <_svfprintf_r+0x2dc>
    40002884:	06500693          	li	a3,101
    40002888:	9a86dce3          	bge	a3,s0,40002240 <_svfprintf_r+0x7f0>
    4000288c:	10013503          	ld	a0,256(sp)
    40002890:	10813583          	ld	a1,264(sp)
    40002894:	00000613          	li	a2,0
    40002898:	00000693          	li	a3,0
    4000289c:	08613423          	sd	t1,136(sp)
    400028a0:	06f13423          	sd	a5,104(sp)
    400028a4:	3310b0ef          	jal	ra,4000e3d4 <__eqtf2>
    400028a8:	06813783          	ld	a5,104(sp)
    400028ac:	08813303          	ld	t1,136(sp)
    400028b0:	4e051e63          	bnez	a0,40002dac <_svfprintf_r+0x135c>
    400028b4:	11812703          	lw	a4,280(sp)
    400028b8:	00027697          	auipc	a3,0x27
    400028bc:	bf068693          	addi	a3,a3,-1040 # 400294a8 <finsh_name_table+0x3e0>
    400028c0:	00178793          	addi	a5,a5,1
    400028c4:	0017071b          	addiw	a4,a4,1
    400028c8:	00d33023          	sd	a3,0(t1)
    400028cc:	00100693          	li	a3,1
    400028d0:	00d33423          	sd	a3,8(t1)
    400028d4:	12f13023          	sd	a5,288(sp)
    400028d8:	0007069b          	sext.w	a3,a4
    400028dc:	10e12c23          	sw	a4,280(sp)
    400028e0:	00700793          	li	a5,7
    400028e4:	01030313          	addi	t1,t1,16
    400028e8:	3ad7c4e3          	blt	a5,a3,40003490 <_svfprintf_r+0x1a40>
    400028ec:	0e812783          	lw	a5,232(sp)
    400028f0:	03013703          	ld	a4,48(sp)
    400028f4:	00e7ca63          	blt	a5,a4,40002908 <_svfprintf_r+0xeb8>
    400028f8:	0014f793          	andi	a5,s1,1
    400028fc:	00079663          	bnez	a5,40002908 <_svfprintf_r+0xeb8>
    40002900:	12013783          	ld	a5,288(sp)
    40002904:	895ff06f          	j	40002198 <_svfprintf_r+0x748>
    40002908:	06013783          	ld	a5,96(sp)
    4000290c:	05013683          	ld	a3,80(sp)
    40002910:	11812703          	lw	a4,280(sp)
    40002914:	00f33023          	sd	a5,0(t1)
    40002918:	12013783          	ld	a5,288(sp)
    4000291c:	0017071b          	addiw	a4,a4,1
    40002920:	00d33423          	sd	a3,8(t1)
    40002924:	00f687b3          	add	a5,a3,a5
    40002928:	10e12c23          	sw	a4,280(sp)
    4000292c:	0007069b          	sext.w	a3,a4
    40002930:	12f13023          	sd	a5,288(sp)
    40002934:	00700713          	li	a4,7
    40002938:	01030313          	addi	t1,t1,16
    4000293c:	72d74c63          	blt	a4,a3,40003074 <_svfprintf_r+0x1624>
    40002940:	03013703          	ld	a4,48(sp)
    40002944:	fff7041b          	addiw	s0,a4,-1
    40002948:	848058e3          	blez	s0,40002198 <_svfprintf_r+0x748>
    4000294c:	11812703          	lw	a4,280(sp)
    40002950:	368d50e3          	bge	s10,s0,400034b0 <_svfprintf_r+0x1a60>
    40002954:	00700c93          	li	s9,7
    40002958:	01013b03          	ld	s6,16(sp)
    4000295c:	00c0006f          	j	40002968 <_svfprintf_r+0xf18>
    40002960:	ff04041b          	addiw	s0,s0,-16
    40002964:	348d56e3          	bge	s10,s0,400034b0 <_svfprintf_r+0x1a60>
    40002968:	0017071b          	addiw	a4,a4,1
    4000296c:	01078793          	addi	a5,a5,16
    40002970:	01833023          	sd	s8,0(t1)
    40002974:	01a33423          	sd	s10,8(t1)
    40002978:	12f13023          	sd	a5,288(sp)
    4000297c:	10e12c23          	sw	a4,280(sp)
    40002980:	01030313          	addi	t1,t1,16
    40002984:	fcecdee3          	bge	s9,a4,40002960 <_svfprintf_r+0xf10>
    40002988:	11010613          	addi	a2,sp,272
    4000298c:	000b0593          	mv	a1,s6
    40002990:	000a8513          	mv	a0,s5
    40002994:	26c080ef          	jal	ra,4000ac00 <__ssprint_r>
    40002998:	aa051263          	bnez	a0,40001c3c <_svfprintf_r+0x1ec>
    4000299c:	12013783          	ld	a5,288(sp)
    400029a0:	11812703          	lw	a4,280(sp)
    400029a4:	19010313          	addi	t1,sp,400
    400029a8:	fb9ff06f          	j	40002960 <_svfprintf_r+0xf10>
    400029ac:	41498b3b          	subw	s6,s3,s4
    400029b0:	fb605863          	blez	s6,40002160 <_svfprintf_r+0x710>
    400029b4:	11812683          	lw	a3,280(sp)
    400029b8:	096d5a63          	bge	s10,s6,40002a4c <_svfprintf_r+0xffc>
    400029bc:	000b0713          	mv	a4,s6
    400029c0:	06813423          	sd	s0,104(sp)
    400029c4:	000a0b13          	mv	s6,s4
    400029c8:	00700893          	li	a7,7
    400029cc:	00098a13          	mv	s4,s3
    400029d0:	01013403          	ld	s0,16(sp)
    400029d4:	00048993          	mv	s3,s1
    400029d8:	00070493          	mv	s1,a4
    400029dc:	00c0006f          	j	400029e8 <_svfprintf_r+0xf98>
    400029e0:	ff04849b          	addiw	s1,s1,-16
    400029e4:	049d5863          	bge	s10,s1,40002a34 <_svfprintf_r+0xfe4>
    400029e8:	0016869b          	addiw	a3,a3,1
    400029ec:	01078793          	addi	a5,a5,16
    400029f0:	01833023          	sd	s8,0(t1)
    400029f4:	01a33423          	sd	s10,8(t1)
    400029f8:	12f13023          	sd	a5,288(sp)
    400029fc:	10d12c23          	sw	a3,280(sp)
    40002a00:	01030313          	addi	t1,t1,16
    40002a04:	fcd8dee3          	bge	a7,a3,400029e0 <_svfprintf_r+0xf90>
    40002a08:	11010613          	addi	a2,sp,272
    40002a0c:	00040593          	mv	a1,s0
    40002a10:	000a8513          	mv	a0,s5
    40002a14:	1ec080ef          	jal	ra,4000ac00 <__ssprint_r>
    40002a18:	a2051263          	bnez	a0,40001c3c <_svfprintf_r+0x1ec>
    40002a1c:	ff04849b          	addiw	s1,s1,-16
    40002a20:	12013783          	ld	a5,288(sp)
    40002a24:	11812683          	lw	a3,280(sp)
    40002a28:	19010313          	addi	t1,sp,400
    40002a2c:	00700893          	li	a7,7
    40002a30:	fa9d4ce3          	blt	s10,s1,400029e8 <_svfprintf_r+0xf98>
    40002a34:	06813403          	ld	s0,104(sp)
    40002a38:	00048713          	mv	a4,s1
    40002a3c:	00098493          	mv	s1,s3
    40002a40:	000a0993          	mv	s3,s4
    40002a44:	000b0a13          	mv	s4,s6
    40002a48:	00070b13          	mv	s6,a4
    40002a4c:	0016861b          	addiw	a2,a3,1
    40002a50:	016787b3          	add	a5,a5,s6
    40002a54:	01833023          	sd	s8,0(t1)
    40002a58:	01633423          	sd	s6,8(t1)
    40002a5c:	12f13023          	sd	a5,288(sp)
    40002a60:	10c12c23          	sw	a2,280(sp)
    40002a64:	00700693          	li	a3,7
    40002a68:	01030313          	addi	t1,t1,16
    40002a6c:	eec6da63          	bge	a3,a2,40002160 <_svfprintf_r+0x710>
    40002a70:	01013583          	ld	a1,16(sp)
    40002a74:	11010613          	addi	a2,sp,272
    40002a78:	000a8513          	mv	a0,s5
    40002a7c:	184080ef          	jal	ra,4000ac00 <__ssprint_r>
    40002a80:	9a051e63          	bnez	a0,40001c3c <_svfprintf_r+0x1ec>
    40002a84:	419b8bbb          	subw	s7,s7,s9
    40002a88:	12013783          	ld	a5,288(sp)
    40002a8c:	19010313          	addi	t1,sp,400
    40002a90:	ed705c63          	blez	s7,40002168 <_svfprintf_r+0x718>
    40002a94:	11812683          	lw	a3,280(sp)
    40002a98:	097d5863          	bge	s10,s7,40002b28 <_svfprintf_r+0x10d8>
    40002a9c:	000a0713          	mv	a4,s4
    40002aa0:	06813423          	sd	s0,104(sp)
    40002aa4:	00098a13          	mv	s4,s3
    40002aa8:	00700b13          	li	s6,7
    40002aac:	00048993          	mv	s3,s1
    40002ab0:	01013403          	ld	s0,16(sp)
    40002ab4:	000b8493          	mv	s1,s7
    40002ab8:	00070b93          	mv	s7,a4
    40002abc:	00c0006f          	j	40002ac8 <_svfprintf_r+0x1078>
    40002ac0:	ff04849b          	addiw	s1,s1,-16
    40002ac4:	049d5663          	bge	s10,s1,40002b10 <_svfprintf_r+0x10c0>
    40002ac8:	0016869b          	addiw	a3,a3,1
    40002acc:	01078793          	addi	a5,a5,16
    40002ad0:	01833023          	sd	s8,0(t1)
    40002ad4:	01a33423          	sd	s10,8(t1)
    40002ad8:	12f13023          	sd	a5,288(sp)
    40002adc:	10d12c23          	sw	a3,280(sp)
    40002ae0:	01030313          	addi	t1,t1,16
    40002ae4:	fcdb5ee3          	bge	s6,a3,40002ac0 <_svfprintf_r+0x1070>
    40002ae8:	11010613          	addi	a2,sp,272
    40002aec:	00040593          	mv	a1,s0
    40002af0:	000a8513          	mv	a0,s5
    40002af4:	10c080ef          	jal	ra,4000ac00 <__ssprint_r>
    40002af8:	94051263          	bnez	a0,40001c3c <_svfprintf_r+0x1ec>
    40002afc:	ff04849b          	addiw	s1,s1,-16
    40002b00:	12013783          	ld	a5,288(sp)
    40002b04:	11812683          	lw	a3,280(sp)
    40002b08:	19010313          	addi	t1,sp,400
    40002b0c:	fa9d4ee3          	blt	s10,s1,40002ac8 <_svfprintf_r+0x1078>
    40002b10:	06813403          	ld	s0,104(sp)
    40002b14:	000b8713          	mv	a4,s7
    40002b18:	00048b93          	mv	s7,s1
    40002b1c:	00098493          	mv	s1,s3
    40002b20:	000a0993          	mv	s3,s4
    40002b24:	00070a13          	mv	s4,a4
    40002b28:	0016861b          	addiw	a2,a3,1
    40002b2c:	017787b3          	add	a5,a5,s7
    40002b30:	01833023          	sd	s8,0(t1)
    40002b34:	01733423          	sd	s7,8(t1)
    40002b38:	12f13023          	sd	a5,288(sp)
    40002b3c:	10c12c23          	sw	a2,280(sp)
    40002b40:	00700693          	li	a3,7
    40002b44:	01030313          	addi	t1,t1,16
    40002b48:	e2c6d063          	bge	a3,a2,40002168 <_svfprintf_r+0x718>
    40002b4c:	01013583          	ld	a1,16(sp)
    40002b50:	11010613          	addi	a2,sp,272
    40002b54:	000a8513          	mv	a0,s5
    40002b58:	0a8080ef          	jal	ra,4000ac00 <__ssprint_r>
    40002b5c:	8e051063          	bnez	a0,40001c3c <_svfprintf_r+0x1ec>
    40002b60:	12013783          	ld	a5,288(sp)
    40002b64:	19010313          	addi	t1,sp,400
    40002b68:	e00ff06f          	j	40002168 <_svfprintf_r+0x718>
    40002b6c:	00048a13          	mv	s4,s1
    40002b70:	cb4ff06f          	j	40002024 <_svfprintf_r+0x5d4>
    40002b74:	11812683          	lw	a3,280(sp)
    40002b78:	00025b17          	auipc	s6,0x25
    40002b7c:	820b0b13          	addi	s6,s6,-2016 # 40027398 <blanks.4523>
    40002b80:	0b0d5863          	bge	s10,a6,40002c30 <_svfprintf_r+0x11e0>
    40002b84:	09213c23          	sd	s2,152(sp)
    40002b88:	0a813023          	sd	s0,160(sp)
    40002b8c:	000b0913          	mv	s2,s6
    40002b90:	00700f93          	li	t6,7
    40002b94:	000a0b13          	mv	s6,s4
    40002b98:	07d13423          	sd	t4,104(sp)
    40002b9c:	00098a13          	mv	s4,s3
    40002ba0:	09e13423          	sd	t5,136(sp)
    40002ba4:	00048993          	mv	s3,s1
    40002ba8:	00080413          	mv	s0,a6
    40002bac:	01013483          	ld	s1,16(sp)
    40002bb0:	00c0006f          	j	40002bbc <_svfprintf_r+0x116c>
    40002bb4:	ff04041b          	addiw	s0,s0,-16
    40002bb8:	048d5a63          	bge	s10,s0,40002c0c <_svfprintf_r+0x11bc>
    40002bbc:	0016869b          	addiw	a3,a3,1
    40002bc0:	01078793          	addi	a5,a5,16
    40002bc4:	01233023          	sd	s2,0(t1)
    40002bc8:	01a33423          	sd	s10,8(t1)
    40002bcc:	12f13023          	sd	a5,288(sp)
    40002bd0:	10d12c23          	sw	a3,280(sp)
    40002bd4:	01030313          	addi	t1,t1,16
    40002bd8:	fcdfdee3          	bge	t6,a3,40002bb4 <_svfprintf_r+0x1164>
    40002bdc:	11010613          	addi	a2,sp,272
    40002be0:	00048593          	mv	a1,s1
    40002be4:	000a8513          	mv	a0,s5
    40002be8:	018080ef          	jal	ra,4000ac00 <__ssprint_r>
    40002bec:	00050463          	beqz	a0,40002bf4 <_svfprintf_r+0x11a4>
    40002bf0:	84cff06f          	j	40001c3c <_svfprintf_r+0x1ec>
    40002bf4:	ff04041b          	addiw	s0,s0,-16
    40002bf8:	12013783          	ld	a5,288(sp)
    40002bfc:	11812683          	lw	a3,280(sp)
    40002c00:	19010313          	addi	t1,sp,400
    40002c04:	00700f93          	li	t6,7
    40002c08:	fa8d4ae3          	blt	s10,s0,40002bbc <_svfprintf_r+0x116c>
    40002c0c:	00098493          	mv	s1,s3
    40002c10:	00040813          	mv	a6,s0
    40002c14:	000a0993          	mv	s3,s4
    40002c18:	06813e83          	ld	t4,104(sp)
    40002c1c:	000b0a13          	mv	s4,s6
    40002c20:	08813f03          	ld	t5,136(sp)
    40002c24:	00090b13          	mv	s6,s2
    40002c28:	0a013403          	ld	s0,160(sp)
    40002c2c:	09813903          	ld	s2,152(sp)
    40002c30:	0016861b          	addiw	a2,a3,1
    40002c34:	010787b3          	add	a5,a5,a6
    40002c38:	01633023          	sd	s6,0(t1)
    40002c3c:	01033423          	sd	a6,8(t1)
    40002c40:	12f13023          	sd	a5,288(sp)
    40002c44:	10c12c23          	sw	a2,280(sp)
    40002c48:	00700693          	li	a3,7
    40002c4c:	01030313          	addi	t1,t1,16
    40002c50:	c8c6da63          	bge	a3,a2,400020e4 <_svfprintf_r+0x694>
    40002c54:	01013583          	ld	a1,16(sp)
    40002c58:	11010613          	addi	a2,sp,272
    40002c5c:	000a8513          	mv	a0,s5
    40002c60:	09e13423          	sd	t5,136(sp)
    40002c64:	07d13423          	sd	t4,104(sp)
    40002c68:	799070ef          	jal	ra,4000ac00 <__ssprint_r>
    40002c6c:	00050463          	beqz	a0,40002c74 <_svfprintf_r+0x1224>
    40002c70:	fcdfe06f          	j	40001c3c <_svfprintf_r+0x1ec>
    40002c74:	12013783          	ld	a5,288(sp)
    40002c78:	19010313          	addi	t1,sp,400
    40002c7c:	08813f03          	ld	t5,136(sp)
    40002c80:	06813e83          	ld	t4,104(sp)
    40002c84:	c60ff06f          	j	400020e4 <_svfprintf_r+0x694>
    40002c88:	01013583          	ld	a1,16(sp)
    40002c8c:	11010613          	addi	a2,sp,272
    40002c90:	000a8513          	mv	a0,s5
    40002c94:	07e13423          	sd	t5,104(sp)
    40002c98:	769070ef          	jal	ra,4000ac00 <__ssprint_r>
    40002c9c:	00050463          	beqz	a0,40002ca4 <_svfprintf_r+0x1254>
    40002ca0:	f9dfe06f          	j	40001c3c <_svfprintf_r+0x1ec>
    40002ca4:	12013783          	ld	a5,288(sp)
    40002ca8:	19010313          	addi	t1,sp,400
    40002cac:	06813f03          	ld	t5,104(sp)
    40002cb0:	ca8ff06f          	j	40002158 <_svfprintf_r+0x708>
    40002cb4:	11812703          	lw	a4,280(sp)
    40002cb8:	00024b17          	auipc	s6,0x24
    40002cbc:	6e0b0b13          	addi	s6,s6,1760 # 40027398 <blanks.4523>
    40002cc0:	068d5263          	bge	s10,s0,40002d24 <_svfprintf_r+0x12d4>
    40002cc4:	00700493          	li	s1,7
    40002cc8:	01013b83          	ld	s7,16(sp)
    40002ccc:	00c0006f          	j	40002cd8 <_svfprintf_r+0x1288>
    40002cd0:	ff04041b          	addiw	s0,s0,-16
    40002cd4:	048d5863          	bge	s10,s0,40002d24 <_svfprintf_r+0x12d4>
    40002cd8:	0017071b          	addiw	a4,a4,1
    40002cdc:	01078793          	addi	a5,a5,16
    40002ce0:	01633023          	sd	s6,0(t1)
    40002ce4:	01a33423          	sd	s10,8(t1)
    40002ce8:	12f13023          	sd	a5,288(sp)
    40002cec:	10e12c23          	sw	a4,280(sp)
    40002cf0:	01030313          	addi	t1,t1,16
    40002cf4:	fce4dee3          	bge	s1,a4,40002cd0 <_svfprintf_r+0x1280>
    40002cf8:	11010613          	addi	a2,sp,272
    40002cfc:	000b8593          	mv	a1,s7
    40002d00:	000a8513          	mv	a0,s5
    40002d04:	6fd070ef          	jal	ra,4000ac00 <__ssprint_r>
    40002d08:	00050463          	beqz	a0,40002d10 <_svfprintf_r+0x12c0>
    40002d0c:	f31fe06f          	j	40001c3c <_svfprintf_r+0x1ec>
    40002d10:	ff04041b          	addiw	s0,s0,-16
    40002d14:	12013783          	ld	a5,288(sp)
    40002d18:	11812703          	lw	a4,280(sp)
    40002d1c:	19010313          	addi	t1,sp,400
    40002d20:	fa8d4ce3          	blt	s10,s0,40002cd8 <_svfprintf_r+0x1288>
    40002d24:	0017069b          	addiw	a3,a4,1
    40002d28:	008787b3          	add	a5,a5,s0
    40002d2c:	01633023          	sd	s6,0(t1)
    40002d30:	00833423          	sd	s0,8(t1)
    40002d34:	12f13023          	sd	a5,288(sp)
    40002d38:	10d12c23          	sw	a3,280(sp)
    40002d3c:	00700713          	li	a4,7
    40002d40:	c6d75463          	bge	a4,a3,400021a8 <_svfprintf_r+0x758>
    40002d44:	01013583          	ld	a1,16(sp)
    40002d48:	11010613          	addi	a2,sp,272
    40002d4c:	000a8513          	mv	a0,s5
    40002d50:	6b1070ef          	jal	ra,4000ac00 <__ssprint_r>
    40002d54:	00050463          	beqz	a0,40002d5c <_svfprintf_r+0x130c>
    40002d58:	ee5fe06f          	j	40001c3c <_svfprintf_r+0x1ec>
    40002d5c:	12013783          	ld	a5,288(sp)
    40002d60:	c48ff06f          	j	400021a8 <_svfprintf_r+0x758>
    40002d64:	00100713          	li	a4,1
    40002d68:	30e78ee3          	beq	a5,a4,40003884 <_svfprintf_r+0x1e34>
    40002d6c:	00200713          	li	a4,2
    40002d70:	00048a13          	mv	s4,s1
    40002d74:	ace79063          	bne	a5,a4,40002034 <_svfprintf_r+0x5e4>
    40002d78:	05813703          	ld	a4,88(sp)
    40002d7c:	18c10c93          	addi	s9,sp,396
    40002d80:	000c8d93          	mv	s11,s9
    40002d84:	00fb7793          	andi	a5,s6,15
    40002d88:	00f707b3          	add	a5,a4,a5
    40002d8c:	0007c783          	lbu	a5,0(a5)
    40002d90:	fffd8d93          	addi	s11,s11,-1
    40002d94:	004b5b13          	srli	s6,s6,0x4
    40002d98:	00fd8023          	sb	a5,0(s11)
    40002d9c:	fe0b14e3          	bnez	s6,40002d84 <_svfprintf_r+0x1334>
    40002da0:	41bc8cbb          	subw	s9,s9,s11
    40002da4:	000a0493          	mv	s1,s4
    40002da8:	f85fe06f          	j	40001d2c <_svfprintf_r+0x2dc>
    40002dac:	0e812583          	lw	a1,232(sp)
    40002db0:	58b05663          	blez	a1,4000333c <_svfprintf_r+0x18ec>
    40002db4:	03013703          	ld	a4,48(sp)
    40002db8:	02813683          	ld	a3,40(sp)
    40002dbc:	0007041b          	sext.w	s0,a4
    40002dc0:	2ae6c463          	blt	a3,a4,40003068 <_svfprintf_r+0x1618>
    40002dc4:	02805663          	blez	s0,40002df0 <_svfprintf_r+0x13a0>
    40002dc8:	11812683          	lw	a3,280(sp)
    40002dcc:	008787b3          	add	a5,a5,s0
    40002dd0:	01b33023          	sd	s11,0(t1)
    40002dd4:	0016861b          	addiw	a2,a3,1
    40002dd8:	00833423          	sd	s0,8(t1)
    40002ddc:	12f13023          	sd	a5,288(sp)
    40002de0:	10c12c23          	sw	a2,280(sp)
    40002de4:	00700693          	li	a3,7
    40002de8:	01030313          	addi	t1,t1,16
    40002dec:	16c6c8e3          	blt	a3,a2,4000375c <_svfprintf_r+0x1d0c>
    40002df0:	fff44693          	not	a3,s0
    40002df4:	02813703          	ld	a4,40(sp)
    40002df8:	43f6d693          	srai	a3,a3,0x3f
    40002dfc:	00d47433          	and	s0,s0,a3
    40002e00:	4087043b          	subw	s0,a4,s0
    40002e04:	30804a63          	bgtz	s0,40003118 <_svfprintf_r+0x16c8>
    40002e08:	02813703          	ld	a4,40(sp)
    40002e0c:	4004f693          	andi	a3,s1,1024
    40002e10:	00ed8bb3          	add	s7,s11,a4
    40002e14:	36069463          	bnez	a3,4000317c <_svfprintf_r+0x172c>
    40002e18:	0e812683          	lw	a3,232(sp)
    40002e1c:	03013703          	ld	a4,48(sp)
    40002e20:	00e6c663          	blt	a3,a4,40002e2c <_svfprintf_r+0x13dc>
    40002e24:	0014f613          	andi	a2,s1,1
    40002e28:	18060ee3          	beqz	a2,400037c4 <_svfprintf_r+0x1d74>
    40002e2c:	06013603          	ld	a2,96(sp)
    40002e30:	05013703          	ld	a4,80(sp)
    40002e34:	01030313          	addi	t1,t1,16
    40002e38:	fec33823          	sd	a2,-16(t1)
    40002e3c:	11812603          	lw	a2,280(sp)
    40002e40:	00e787b3          	add	a5,a5,a4
    40002e44:	fee33c23          	sd	a4,-8(t1)
    40002e48:	0016059b          	addiw	a1,a2,1
    40002e4c:	12f13023          	sd	a5,288(sp)
    40002e50:	10b12c23          	sw	a1,280(sp)
    40002e54:	00700613          	li	a2,7
    40002e58:	3eb64ee3          	blt	a2,a1,40003a54 <_svfprintf_r+0x2004>
    40002e5c:	03013703          	ld	a4,48(sp)
    40002e60:	40d7063b          	subw	a2,a4,a3
    40002e64:	00ed8733          	add	a4,s11,a4
    40002e68:	4177073b          	subw	a4,a4,s7
    40002e6c:	00060693          	mv	a3,a2
    40002e70:	00c75463          	bge	a4,a2,40002e78 <_svfprintf_r+0x1428>
    40002e74:	00070693          	mv	a3,a4
    40002e78:	0006841b          	sext.w	s0,a3
    40002e7c:	02805663          	blez	s0,40002ea8 <_svfprintf_r+0x1458>
    40002e80:	11812703          	lw	a4,280(sp)
    40002e84:	008787b3          	add	a5,a5,s0
    40002e88:	01733023          	sd	s7,0(t1)
    40002e8c:	0017069b          	addiw	a3,a4,1
    40002e90:	00833423          	sd	s0,8(t1)
    40002e94:	12f13023          	sd	a5,288(sp)
    40002e98:	10d12c23          	sw	a3,280(sp)
    40002e9c:	00700713          	li	a4,7
    40002ea0:	01030313          	addi	t1,t1,16
    40002ea4:	40d742e3          	blt	a4,a3,40003aa8 <_svfprintf_r+0x2058>
    40002ea8:	fff44713          	not	a4,s0
    40002eac:	43f75713          	srai	a4,a4,0x3f
    40002eb0:	00e47433          	and	s0,s0,a4
    40002eb4:	4086043b          	subw	s0,a2,s0
    40002eb8:	ae805063          	blez	s0,40002198 <_svfprintf_r+0x748>
    40002ebc:	11812703          	lw	a4,280(sp)
    40002ec0:	5e8d5863          	bge	s10,s0,400034b0 <_svfprintf_r+0x1a60>
    40002ec4:	00700c93          	li	s9,7
    40002ec8:	01013b03          	ld	s6,16(sp)
    40002ecc:	00c0006f          	j	40002ed8 <_svfprintf_r+0x1488>
    40002ed0:	ff04041b          	addiw	s0,s0,-16
    40002ed4:	5c8d5e63          	bge	s10,s0,400034b0 <_svfprintf_r+0x1a60>
    40002ed8:	0017071b          	addiw	a4,a4,1
    40002edc:	01078793          	addi	a5,a5,16
    40002ee0:	01833023          	sd	s8,0(t1)
    40002ee4:	01a33423          	sd	s10,8(t1)
    40002ee8:	12f13023          	sd	a5,288(sp)
    40002eec:	10e12c23          	sw	a4,280(sp)
    40002ef0:	01030313          	addi	t1,t1,16
    40002ef4:	fcecdee3          	bge	s9,a4,40002ed0 <_svfprintf_r+0x1480>
    40002ef8:	11010613          	addi	a2,sp,272
    40002efc:	000b0593          	mv	a1,s6
    40002f00:	000a8513          	mv	a0,s5
    40002f04:	4fd070ef          	jal	ra,4000ac00 <__ssprint_r>
    40002f08:	00050463          	beqz	a0,40002f10 <_svfprintf_r+0x14c0>
    40002f0c:	d31fe06f          	j	40001c3c <_svfprintf_r+0x1ec>
    40002f10:	12013783          	ld	a5,288(sp)
    40002f14:	11812703          	lw	a4,280(sp)
    40002f18:	19010313          	addi	t1,sp,400
    40002f1c:	fb5ff06f          	j	40002ed0 <_svfprintf_r+0x1480>
    40002f20:	0014f513          	andi	a0,s1,1
    40002f24:	b4051063          	bnez	a0,40002264 <_svfprintf_r+0x814>
    40002f28:	00c33423          	sd	a2,8(t1)
    40002f2c:	13913023          	sd	s9,288(sp)
    40002f30:	10f12c23          	sw	a5,280(sp)
    40002f34:	00700713          	li	a4,7
    40002f38:	3cf74a63          	blt	a4,a5,4000330c <_svfprintf_r+0x18bc>
    40002f3c:	00258b1b          	addiw	s6,a1,2
    40002f40:	02030313          	addi	t1,t1,32
    40002f44:	be0ff06f          	j	40002324 <_svfprintf_r+0x8d4>
    40002f48:	bd705e63          	blez	s7,40002324 <_svfprintf_r+0x8d4>
    40002f4c:	017d4463          	blt	s10,s7,40002f54 <_svfprintf_r+0x1504>
    40002f50:	1a00106f          	j	400040f0 <_svfprintf_r+0x26a0>
    40002f54:	00700b13          	li	s6,7
    40002f58:	01013d83          	ld	s11,16(sp)
    40002f5c:	0100006f          	j	40002f6c <_svfprintf_r+0x151c>
    40002f60:	ff0b8b9b          	addiw	s7,s7,-16
    40002f64:	6f7d5463          	bge	s10,s7,4000364c <_svfprintf_r+0x1bfc>
    40002f68:	0017889b          	addiw	a7,a5,1
    40002f6c:	010c8c93          	addi	s9,s9,16
    40002f70:	01843023          	sd	s8,0(s0)
    40002f74:	01a43423          	sd	s10,8(s0)
    40002f78:	13913023          	sd	s9,288(sp)
    40002f7c:	0008879b          	sext.w	a5,a7
    40002f80:	11112c23          	sw	a7,280(sp)
    40002f84:	01040413          	addi	s0,s0,16
    40002f88:	fcfb5ce3          	bge	s6,a5,40002f60 <_svfprintf_r+0x1510>
    40002f8c:	11010613          	addi	a2,sp,272
    40002f90:	000d8593          	mv	a1,s11
    40002f94:	000a8513          	mv	a0,s5
    40002f98:	469070ef          	jal	ra,4000ac00 <__ssprint_r>
    40002f9c:	00050463          	beqz	a0,40002fa4 <_svfprintf_r+0x1554>
    40002fa0:	c9dfe06f          	j	40001c3c <_svfprintf_r+0x1ec>
    40002fa4:	12013c83          	ld	s9,288(sp)
    40002fa8:	11812783          	lw	a5,280(sp)
    40002fac:	19010413          	addi	s0,sp,400
    40002fb0:	fb1ff06f          	j	40002f60 <_svfprintf_r+0x1510>
    40002fb4:	000d8493          	mv	s1,s11
    40002fb8:	bddfe06f          	j	40001b94 <_svfprintf_r+0x144>
    40002fbc:	01013583          	ld	a1,16(sp)
    40002fc0:	11010613          	addi	a2,sp,272
    40002fc4:	000a8513          	mv	a0,s5
    40002fc8:	439070ef          	jal	ra,4000ac00 <__ssprint_r>
    40002fcc:	00050463          	beqz	a0,40002fd4 <_svfprintf_r+0x1584>
    40002fd0:	c6dfe06f          	j	40001c3c <_svfprintf_r+0x1ec>
    40002fd4:	12013c83          	ld	s9,288(sp)
    40002fd8:	11812783          	lw	a5,280(sp)
    40002fdc:	19010413          	addi	s0,sp,400
    40002fe0:	a9cff06f          	j	4000227c <_svfprintf_r+0x82c>
    40002fe4:	01013583          	ld	a1,16(sp)
    40002fe8:	11010613          	addi	a2,sp,272
    40002fec:	000a8513          	mv	a0,s5
    40002ff0:	411070ef          	jal	ra,4000ac00 <__ssprint_r>
    40002ff4:	00050463          	beqz	a0,40002ffc <_svfprintf_r+0x15ac>
    40002ff8:	c45fe06f          	j	40001c3c <_svfprintf_r+0x1ec>
    40002ffc:	12013c83          	ld	s9,288(sp)
    40003000:	11812783          	lw	a5,280(sp)
    40003004:	19010413          	addi	s0,sp,400
    40003008:	aa4ff06f          	j	400022ac <_svfprintf_r+0x85c>
    4000300c:	03000793          	li	a5,48
    40003010:	18f105a3          	sb	a5,395(sp)
    40003014:	18b10d93          	addi	s11,sp,395
    40003018:	d15fe06f          	j	40001d2c <_svfprintf_r+0x2dc>
    4000301c:	00048a13          	mv	s4,s1
    40003020:	fd9fe06f          	j	40001ff8 <_svfprintf_r+0x5a8>
    40003024:	00048a13          	mv	s4,s1
    40003028:	f09fe06f          	j	40001f30 <_svfprintf_r+0x4e0>
    4000302c:	00094403          	lbu	s0,0(s2)
    40003030:	b89fe06f          	j	40001bb8 <_svfprintf_r+0x168>
    40003034:	01813783          	ld	a5,24(sp)
    40003038:	03913023          	sd	s9,32(sp)
    4000303c:	0007b503          	ld	a0,0(a5)
    40003040:	00878793          	addi	a5,a5,8
    40003044:	00f13c23          	sd	a5,24(sp)
    40003048:	5c00c0ef          	jal	ra,4000f608 <__extenddftf2>
    4000304c:	10a13023          	sd	a0,256(sp)
    40003050:	10b13423          	sd	a1,264(sp)
    40003054:	02013303          	ld	t1,32(sp)
    40003058:	b40ff06f          	j	40002398 <_svfprintf_r+0x948>
    4000305c:	01813783          	ld	a5,24(sp)
    40003060:	0007bb03          	ld	s6,0(a5)
    40003064:	c65fe06f          	j	40001cc8 <_svfprintf_r+0x278>
    40003068:	0006841b          	sext.w	s0,a3
    4000306c:	d4804ee3          	bgtz	s0,40002dc8 <_svfprintf_r+0x1378>
    40003070:	d81ff06f          	j	40002df0 <_svfprintf_r+0x13a0>
    40003074:	01013583          	ld	a1,16(sp)
    40003078:	11010613          	addi	a2,sp,272
    4000307c:	000a8513          	mv	a0,s5
    40003080:	381070ef          	jal	ra,4000ac00 <__ssprint_r>
    40003084:	00050463          	beqz	a0,4000308c <_svfprintf_r+0x163c>
    40003088:	bb5fe06f          	j	40001c3c <_svfprintf_r+0x1ec>
    4000308c:	12013783          	ld	a5,288(sp)
    40003090:	19010313          	addi	t1,sp,400
    40003094:	8adff06f          	j	40002940 <_svfprintf_r+0xef0>
    40003098:	0204e493          	ori	s1,s1,32
    4000309c:	00194403          	lbu	s0,1(s2)
    400030a0:	0004849b          	sext.w	s1,s1
    400030a4:	00190913          	addi	s2,s2,1
    400030a8:	b11fe06f          	j	40001bb8 <_svfprintf_r+0x168>
    400030ac:	2004e493          	ori	s1,s1,512
    400030b0:	00194403          	lbu	s0,1(s2)
    400030b4:	0004849b          	sext.w	s1,s1
    400030b8:	00190913          	addi	s2,s2,1
    400030bc:	afdfe06f          	j	40001bb8 <_svfprintf_r+0x168>
    400030c0:	04813503          	ld	a0,72(sp)
    400030c4:	04000593          	li	a1,64
    400030c8:	624220ef          	jal	ra,400256ec <_malloc_r>
    400030cc:	01013783          	ld	a5,16(sp)
    400030d0:	00a7b023          	sd	a0,0(a5)
    400030d4:	00a7bc23          	sd	a0,24(a5)
    400030d8:	00051463          	bnez	a0,400030e0 <_svfprintf_r+0x1690>
    400030dc:	0580106f          	j	40004134 <_svfprintf_r+0x26e4>
    400030e0:	01013703          	ld	a4,16(sp)
    400030e4:	04000793          	li	a5,64
    400030e8:	02f72023          	sw	a5,32(a4)
    400030ec:	9e9fe06f          	j	40001ad4 <_svfprintf_r+0x84>
    400030f0:	000b871b          	sext.w	a4,s7
    400030f4:	00600793          	li	a5,6
    400030f8:	000b8e13          	mv	t3,s7
    400030fc:	6ce7e063          	bltu	a5,a4,400037bc <_svfprintf_r+0x1d6c>
    40003100:	000e0c9b          	sext.w	s9,t3
    40003104:	000c8a13          	mv	s4,s9
    40003108:	01613c23          	sd	s6,24(sp)
    4000310c:	00026d97          	auipc	s11,0x26
    40003110:	394d8d93          	addi	s11,s11,916 # 400294a0 <finsh_name_table+0x3d8>
    40003114:	f99fe06f          	j	400020ac <_svfprintf_r+0x65c>
    40003118:	11812683          	lw	a3,280(sp)
    4000311c:	5e8d5663          	bge	s10,s0,40003708 <_svfprintf_r+0x1cb8>
    40003120:	00700c93          	li	s9,7
    40003124:	01013b03          	ld	s6,16(sp)
    40003128:	00c0006f          	j	40003134 <_svfprintf_r+0x16e4>
    4000312c:	ff04041b          	addiw	s0,s0,-16
    40003130:	5c8d5c63          	bge	s10,s0,40003708 <_svfprintf_r+0x1cb8>
    40003134:	0016869b          	addiw	a3,a3,1
    40003138:	01078793          	addi	a5,a5,16
    4000313c:	01833023          	sd	s8,0(t1)
    40003140:	01a33423          	sd	s10,8(t1)
    40003144:	12f13023          	sd	a5,288(sp)
    40003148:	10d12c23          	sw	a3,280(sp)
    4000314c:	01030313          	addi	t1,t1,16
    40003150:	fcdcdee3          	bge	s9,a3,4000312c <_svfprintf_r+0x16dc>
    40003154:	11010613          	addi	a2,sp,272
    40003158:	000b0593          	mv	a1,s6
    4000315c:	000a8513          	mv	a0,s5
    40003160:	2a1070ef          	jal	ra,4000ac00 <__ssprint_r>
    40003164:	00050463          	beqz	a0,4000316c <_svfprintf_r+0x171c>
    40003168:	ad5fe06f          	j	40001c3c <_svfprintf_r+0x1ec>
    4000316c:	12013783          	ld	a5,288(sp)
    40003170:	11812683          	lw	a3,280(sp)
    40003174:	19010313          	addi	t1,sp,400
    40003178:	fb5ff06f          	j	4000312c <_svfprintf_r+0x16dc>
    4000317c:	03013703          	ld	a4,48(sp)
    40003180:	03813c83          	ld	s9,56(sp)
    40003184:	03213423          	sd	s2,40(sp)
    40003188:	06913423          	sd	s1,104(sp)
    4000318c:	09313423          	sd	s3,136(sp)
    40003190:	04013903          	ld	s2,64(sp)
    40003194:	03413c23          	sd	s4,56(sp)
    40003198:	05b13023          	sd	s11,64(sp)
    4000319c:	00700b13          	li	s6,7
    400031a0:	00ed8433          	add	s0,s11,a4
    400031a4:	09013983          	ld	s3,144(sp)
    400031a8:	08013483          	ld	s1,128(sp)
    400031ac:	01013a03          	ld	s4,16(sp)
    400031b0:	0a0c8063          	beqz	s9,40003250 <_svfprintf_r+0x1800>
    400031b4:	0a091063          	bnez	s2,40003254 <_svfprintf_r+0x1804>
    400031b8:	fff48493          	addi	s1,s1,-1
    400031bc:	fffc8c9b          	addiw	s9,s9,-1
    400031c0:	07813703          	ld	a4,120(sp)
    400031c4:	013787b3          	add	a5,a5,s3
    400031c8:	01333423          	sd	s3,8(t1)
    400031cc:	00e33023          	sd	a4,0(t1)
    400031d0:	11812703          	lw	a4,280(sp)
    400031d4:	12f13023          	sd	a5,288(sp)
    400031d8:	01030313          	addi	t1,t1,16
    400031dc:	0017069b          	addiw	a3,a4,1
    400031e0:	10d12c23          	sw	a3,280(sp)
    400031e4:	10db4263          	blt	s6,a3,400032e8 <_svfprintf_r+0x1898>
    400031e8:	0004c603          	lbu	a2,0(s1)
    400031ec:	417405bb          	subw	a1,s0,s7
    400031f0:	0006071b          	sext.w	a4,a2
    400031f4:	00070693          	mv	a3,a4
    400031f8:	00e5d463          	bge	a1,a4,40003200 <_svfprintf_r+0x17b0>
    400031fc:	00058693          	mv	a3,a1
    40003200:	00068d9b          	sext.w	s11,a3
    40003204:	03b05863          	blez	s11,40003234 <_svfprintf_r+0x17e4>
    40003208:	11812703          	lw	a4,280(sp)
    4000320c:	01b787b3          	add	a5,a5,s11
    40003210:	01733023          	sd	s7,0(t1)
    40003214:	0017061b          	addiw	a2,a4,1
    40003218:	01b33423          	sd	s11,8(t1)
    4000321c:	12f13023          	sd	a5,288(sp)
    40003220:	10c12c23          	sw	a2,280(sp)
    40003224:	2acb4a63          	blt	s6,a2,400034d8 <_svfprintf_r+0x1a88>
    40003228:	0004c603          	lbu	a2,0(s1)
    4000322c:	01030313          	addi	t1,t1,16
    40003230:	0006071b          	sext.w	a4,a2
    40003234:	fffdc593          	not	a1,s11
    40003238:	43f5d593          	srai	a1,a1,0x3f
    4000323c:	00bdf6b3          	and	a3,s11,a1
    40003240:	40d70dbb          	subw	s11,a4,a3
    40003244:	01b04c63          	bgtz	s11,4000325c <_svfprintf_r+0x180c>
    40003248:	00cb8bb3          	add	s7,s7,a2
    4000324c:	f60c94e3          	bnez	s9,400031b4 <_svfprintf_r+0x1764>
    40003250:	62090e63          	beqz	s2,4000388c <_svfprintf_r+0x1e3c>
    40003254:	fff9091b          	addiw	s2,s2,-1
    40003258:	f69ff06f          	j	400031c0 <_svfprintf_r+0x1770>
    4000325c:	11812683          	lw	a3,280(sp)
    40003260:	01bd4863          	blt	s10,s11,40003270 <_svfprintf_r+0x1820>
    40003264:	0580006f          	j	400032bc <_svfprintf_r+0x186c>
    40003268:	ff0d8d9b          	addiw	s11,s11,-16
    4000326c:	05bd5863          	bge	s10,s11,400032bc <_svfprintf_r+0x186c>
    40003270:	0016869b          	addiw	a3,a3,1
    40003274:	01078793          	addi	a5,a5,16
    40003278:	01833023          	sd	s8,0(t1)
    4000327c:	01a33423          	sd	s10,8(t1)
    40003280:	12f13023          	sd	a5,288(sp)
    40003284:	10d12c23          	sw	a3,280(sp)
    40003288:	01030313          	addi	t1,t1,16
    4000328c:	fcdb5ee3          	bge	s6,a3,40003268 <_svfprintf_r+0x1818>
    40003290:	11010613          	addi	a2,sp,272
    40003294:	000a0593          	mv	a1,s4
    40003298:	000a8513          	mv	a0,s5
    4000329c:	165070ef          	jal	ra,4000ac00 <__ssprint_r>
    400032a0:	00050463          	beqz	a0,400032a8 <_svfprintf_r+0x1858>
    400032a4:	999fe06f          	j	40001c3c <_svfprintf_r+0x1ec>
    400032a8:	ff0d8d9b          	addiw	s11,s11,-16
    400032ac:	12013783          	ld	a5,288(sp)
    400032b0:	11812683          	lw	a3,280(sp)
    400032b4:	19010313          	addi	t1,sp,400
    400032b8:	fbbd4ce3          	blt	s10,s11,40003270 <_svfprintf_r+0x1820>
    400032bc:	0016871b          	addiw	a4,a3,1
    400032c0:	01b787b3          	add	a5,a5,s11
    400032c4:	01833023          	sd	s8,0(t1)
    400032c8:	01b33423          	sd	s11,8(t1)
    400032cc:	12f13023          	sd	a5,288(sp)
    400032d0:	10e12c23          	sw	a4,280(sp)
    400032d4:	70eb4863          	blt	s6,a4,400039e4 <_svfprintf_r+0x1f94>
    400032d8:	0004c603          	lbu	a2,0(s1)
    400032dc:	01030313          	addi	t1,t1,16
    400032e0:	00cb8bb3          	add	s7,s7,a2
    400032e4:	f69ff06f          	j	4000324c <_svfprintf_r+0x17fc>
    400032e8:	11010613          	addi	a2,sp,272
    400032ec:	000a0593          	mv	a1,s4
    400032f0:	000a8513          	mv	a0,s5
    400032f4:	10d070ef          	jal	ra,4000ac00 <__ssprint_r>
    400032f8:	00050463          	beqz	a0,40003300 <_svfprintf_r+0x18b0>
    400032fc:	941fe06f          	j	40001c3c <_svfprintf_r+0x1ec>
    40003300:	12013783          	ld	a5,288(sp)
    40003304:	19010313          	addi	t1,sp,400
    40003308:	ee1ff06f          	j	400031e8 <_svfprintf_r+0x1798>
    4000330c:	01013583          	ld	a1,16(sp)
    40003310:	11010613          	addi	a2,sp,272
    40003314:	000a8513          	mv	a0,s5
    40003318:	0e9070ef          	jal	ra,4000ac00 <__ssprint_r>
    4000331c:	00050463          	beqz	a0,40003324 <_svfprintf_r+0x18d4>
    40003320:	91dfe06f          	j	40001c3c <_svfprintf_r+0x1ec>
    40003324:	11812583          	lw	a1,280(sp)
    40003328:	12013c83          	ld	s9,288(sp)
    4000332c:	1a010313          	addi	t1,sp,416
    40003330:	00158b1b          	addiw	s6,a1,1
    40003334:	19010413          	addi	s0,sp,400
    40003338:	fedfe06f          	j	40002324 <_svfprintf_r+0x8d4>
    4000333c:	11812683          	lw	a3,280(sp)
    40003340:	00026617          	auipc	a2,0x26
    40003344:	16860613          	addi	a2,a2,360 # 400294a8 <finsh_name_table+0x3e0>
    40003348:	00c33023          	sd	a2,0(t1)
    4000334c:	0016869b          	addiw	a3,a3,1
    40003350:	00100613          	li	a2,1
    40003354:	00178793          	addi	a5,a5,1
    40003358:	00c33423          	sd	a2,8(t1)
    4000335c:	10d12c23          	sw	a3,280(sp)
    40003360:	0006861b          	sext.w	a2,a3
    40003364:	12f13023          	sd	a5,288(sp)
    40003368:	00700693          	li	a3,7
    4000336c:	01030313          	addi	t1,t1,16
    40003370:	06c6cc63          	blt	a3,a2,400033e8 <_svfprintf_r+0x1998>
    40003374:	1e059863          	bnez	a1,40003564 <_svfprintf_r+0x1b14>
    40003378:	03013703          	ld	a4,48(sp)
    4000337c:	0014f693          	andi	a3,s1,1
    40003380:	00d766b3          	or	a3,a4,a3
    40003384:	00069463          	bnez	a3,4000338c <_svfprintf_r+0x193c>
    40003388:	e11fe06f          	j	40002198 <_svfprintf_r+0x748>
    4000338c:	11812603          	lw	a2,280(sp)
    40003390:	05013703          	ld	a4,80(sp)
    40003394:	06013683          	ld	a3,96(sp)
    40003398:	00e787b3          	add	a5,a5,a4
    4000339c:	00d33023          	sd	a3,0(t1)
    400033a0:	0016069b          	addiw	a3,a2,1
    400033a4:	00e33423          	sd	a4,8(t1)
    400033a8:	12f13023          	sd	a5,288(sp)
    400033ac:	10d12c23          	sw	a3,280(sp)
    400033b0:	00700613          	li	a2,7
    400033b4:	48d64c63          	blt	a2,a3,4000384c <_svfprintf_r+0x1dfc>
    400033b8:	01030313          	addi	t1,t1,16
    400033bc:	03013703          	ld	a4,48(sp)
    400033c0:	0016861b          	addiw	a2,a3,1
    400033c4:	01b33023          	sd	s11,0(t1)
    400033c8:	00f707b3          	add	a5,a4,a5
    400033cc:	00e33423          	sd	a4,8(t1)
    400033d0:	12f13023          	sd	a5,288(sp)
    400033d4:	10c12c23          	sw	a2,280(sp)
    400033d8:	00700713          	li	a4,7
    400033dc:	00c74463          	blt	a4,a2,400033e4 <_svfprintf_r+0x1994>
    400033e0:	db5fe06f          	j	40002194 <_svfprintf_r+0x744>
    400033e4:	f65fe06f          	j	40002348 <_svfprintf_r+0x8f8>
    400033e8:	01013583          	ld	a1,16(sp)
    400033ec:	11010613          	addi	a2,sp,272
    400033f0:	000a8513          	mv	a0,s5
    400033f4:	00d070ef          	jal	ra,4000ac00 <__ssprint_r>
    400033f8:	00050463          	beqz	a0,40003400 <_svfprintf_r+0x19b0>
    400033fc:	841fe06f          	j	40001c3c <_svfprintf_r+0x1ec>
    40003400:	0e812583          	lw	a1,232(sp)
    40003404:	12013783          	ld	a5,288(sp)
    40003408:	19010313          	addi	t1,sp,400
    4000340c:	f69ff06f          	j	40003374 <_svfprintf_r+0x1924>
    40003410:	400a7493          	andi	s1,s4,1024
    40003414:	03213023          	sd	s2,32(sp)
    40003418:	08013903          	ld	s2,128(sp)
    4000341c:	18c10c93          	addi	s9,sp,396
    40003420:	0004849b          	sext.w	s1,s1
    40003424:	00000793          	li	a5,0
    40003428:	000c8d93          	mv	s11,s9
    4000342c:	02813423          	sd	s0,40(sp)
    40003430:	03313c23          	sd	s3,56(sp)
    40003434:	000c8413          	mv	s0,s9
    40003438:	000b0993          	mv	s3,s6
    4000343c:	000a8c93          	mv	s9,s5
    40003440:	00048b13          	mv	s6,s1
    40003444:	00030a93          	mv	s5,t1
    40003448:	00078493          	mv	s1,a5
    4000344c:	00a00593          	li	a1,10
    40003450:	00098513          	mv	a0,s3
    40003454:	5140c0ef          	jal	ra,4000f968 <__umoddi3>
    40003458:	0305051b          	addiw	a0,a0,48
    4000345c:	fea40fa3          	sb	a0,-1(s0)
    40003460:	0014849b          	addiw	s1,s1,1
    40003464:	fff40413          	addi	s0,s0,-1
    40003468:	000b0663          	beqz	s6,40003474 <_svfprintf_r+0x1a24>
    4000346c:	00094683          	lbu	a3,0(s2)
    40003470:	bcd48a63          	beq	s1,a3,40002844 <_svfprintf_r+0xdf4>
    40003474:	00a00593          	li	a1,10
    40003478:	00098513          	mv	a0,s3
    4000347c:	4a40c0ef          	jal	ra,4000f920 <__udivdi3>
    40003480:	00900793          	li	a5,9
    40003484:	bd37f863          	bgeu	a5,s3,40002854 <_svfprintf_r+0xe04>
    40003488:	00050993          	mv	s3,a0
    4000348c:	fc1ff06f          	j	4000344c <_svfprintf_r+0x19fc>
    40003490:	01013583          	ld	a1,16(sp)
    40003494:	11010613          	addi	a2,sp,272
    40003498:	000a8513          	mv	a0,s5
    4000349c:	764070ef          	jal	ra,4000ac00 <__ssprint_r>
    400034a0:	00050463          	beqz	a0,400034a8 <_svfprintf_r+0x1a58>
    400034a4:	f98fe06f          	j	40001c3c <_svfprintf_r+0x1ec>
    400034a8:	19010313          	addi	t1,sp,400
    400034ac:	c40ff06f          	j	400028ec <_svfprintf_r+0xe9c>
    400034b0:	0017069b          	addiw	a3,a4,1
    400034b4:	01833023          	sd	s8,0(t1)
    400034b8:	00833423          	sd	s0,8(t1)
    400034bc:	008787b3          	add	a5,a5,s0
    400034c0:	12f13023          	sd	a5,288(sp)
    400034c4:	10d12c23          	sw	a3,280(sp)
    400034c8:	00700713          	li	a4,7
    400034cc:	00d74463          	blt	a4,a3,400034d4 <_svfprintf_r+0x1a84>
    400034d0:	cc5fe06f          	j	40002194 <_svfprintf_r+0x744>
    400034d4:	e75fe06f          	j	40002348 <_svfprintf_r+0x8f8>
    400034d8:	11010613          	addi	a2,sp,272
    400034dc:	000a0593          	mv	a1,s4
    400034e0:	000a8513          	mv	a0,s5
    400034e4:	71c070ef          	jal	ra,4000ac00 <__ssprint_r>
    400034e8:	00050463          	beqz	a0,400034f0 <_svfprintf_r+0x1aa0>
    400034ec:	f50fe06f          	j	40001c3c <_svfprintf_r+0x1ec>
    400034f0:	0004c603          	lbu	a2,0(s1)
    400034f4:	12013783          	ld	a5,288(sp)
    400034f8:	19010313          	addi	t1,sp,400
    400034fc:	0006071b          	sext.w	a4,a2
    40003500:	d35ff06f          	j	40003234 <_svfprintf_r+0x17e4>
    40003504:	10013503          	ld	a0,256(sp)
    40003508:	10813583          	ld	a1,264(sp)
    4000350c:	00000613          	li	a2,0
    40003510:	00000693          	li	a3,0
    40003514:	02c0b0ef          	jal	ra,4000e540 <__letf2>
    40003518:	02013303          	ld	t1,32(sp)
    4000351c:	52054663          	bltz	a0,40003a48 <_svfprintf_r+0x1ff8>
    40003520:	0df14783          	lbu	a5,223(sp)
    40003524:	04700693          	li	a3,71
    40003528:	00026d97          	auipc	s11,0x26
    4000352c:	f28d8d93          	addi	s11,s11,-216 # 40029450 <finsh_name_table+0x388>
    40003530:	2286c063          	blt	a3,s0,40003750 <_svfprintf_r+0x1d00>
    40003534:	f7f4f493          	andi	s1,s1,-129
    40003538:	02013023          	sd	zero,32(sp)
    4000353c:	04013023          	sd	zero,64(sp)
    40003540:	02013c23          	sd	zero,56(sp)
    40003544:	02013423          	sd	zero,40(sp)
    40003548:	0004849b          	sext.w	s1,s1
    4000354c:	00300a13          	li	s4,3
    40003550:	00300c93          	li	s9,3
    40003554:	00000b93          	li	s7,0
    40003558:	00078463          	beqz	a5,40003560 <_svfprintf_r+0x1b10>
    4000355c:	ff4fe06f          	j	40001d50 <_svfprintf_r+0x300>
    40003560:	b61fe06f          	j	400020c0 <_svfprintf_r+0x670>
    40003564:	11812603          	lw	a2,280(sp)
    40003568:	05013703          	ld	a4,80(sp)
    4000356c:	06013683          	ld	a3,96(sp)
    40003570:	01030313          	addi	t1,t1,16
    40003574:	00e787b3          	add	a5,a5,a4
    40003578:	fed33823          	sd	a3,-16(t1)
    4000357c:	0016069b          	addiw	a3,a2,1
    40003580:	fee33c23          	sd	a4,-8(t1)
    40003584:	12f13023          	sd	a5,288(sp)
    40003588:	10d12c23          	sw	a3,280(sp)
    4000358c:	00700613          	li	a2,7
    40003590:	2ad64e63          	blt	a2,a3,4000384c <_svfprintf_r+0x1dfc>
    40003594:	e205d4e3          	bgez	a1,400033bc <_svfprintf_r+0x196c>
    40003598:	ff000613          	li	a2,-16
    4000359c:	40b0043b          	negw	s0,a1
    400035a0:	0ec5d6e3          	bge	a1,a2,40003e8c <_svfprintf_r+0x243c>
    400035a4:	00700c93          	li	s9,7
    400035a8:	01013b03          	ld	s6,16(sp)
    400035ac:	00c0006f          	j	400035b8 <_svfprintf_r+0x1b68>
    400035b0:	ff04041b          	addiw	s0,s0,-16
    400035b4:	0c8d5ce3          	bge	s10,s0,40003e8c <_svfprintf_r+0x243c>
    400035b8:	0016869b          	addiw	a3,a3,1
    400035bc:	01078793          	addi	a5,a5,16
    400035c0:	01833023          	sd	s8,0(t1)
    400035c4:	01a33423          	sd	s10,8(t1)
    400035c8:	12f13023          	sd	a5,288(sp)
    400035cc:	10d12c23          	sw	a3,280(sp)
    400035d0:	01030313          	addi	t1,t1,16
    400035d4:	fcdcdee3          	bge	s9,a3,400035b0 <_svfprintf_r+0x1b60>
    400035d8:	11010613          	addi	a2,sp,272
    400035dc:	000b0593          	mv	a1,s6
    400035e0:	000a8513          	mv	a0,s5
    400035e4:	61c070ef          	jal	ra,4000ac00 <__ssprint_r>
    400035e8:	00050463          	beqz	a0,400035f0 <_svfprintf_r+0x1ba0>
    400035ec:	e50fe06f          	j	40001c3c <_svfprintf_r+0x1ec>
    400035f0:	12013783          	ld	a5,288(sp)
    400035f4:	11812683          	lw	a3,280(sp)
    400035f8:	19010313          	addi	t1,sp,400
    400035fc:	fb5ff06f          	j	400035b0 <_svfprintf_r+0x1b60>
    40003600:	000d8513          	mv	a0,s11
    40003604:	07913423          	sd	s9,104(sp)
    40003608:	f09fd0ef          	jal	ra,40001510 <strlen>
    4000360c:	00050c9b          	sext.w	s9,a0
    40003610:	fffcca13          	not	s4,s9
    40003614:	0df14783          	lbu	a5,223(sp)
    40003618:	43fa5a13          	srai	s4,s4,0x3f
    4000361c:	014cfa33          	and	s4,s9,s4
    40003620:	01613c23          	sd	s6,24(sp)
    40003624:	02013023          	sd	zero,32(sp)
    40003628:	04013023          	sd	zero,64(sp)
    4000362c:	02013c23          	sd	zero,56(sp)
    40003630:	02013423          	sd	zero,40(sp)
    40003634:	000a0a1b          	sext.w	s4,s4
    40003638:	00000b93          	li	s7,0
    4000363c:	06813303          	ld	t1,104(sp)
    40003640:	00078463          	beqz	a5,40003648 <_svfprintf_r+0x1bf8>
    40003644:	f0cfe06f          	j	40001d50 <_svfprintf_r+0x300>
    40003648:	a79fe06f          	j	400020c0 <_svfprintf_r+0x670>
    4000364c:	00178b1b          	addiw	s6,a5,1
    40003650:	01040793          	addi	a5,s0,16
    40003654:	017c8cb3          	add	s9,s9,s7
    40003658:	01843023          	sd	s8,0(s0)
    4000365c:	01743423          	sd	s7,8(s0)
    40003660:	13913023          	sd	s9,288(sp)
    40003664:	11612c23          	sw	s6,280(sp)
    40003668:	00700713          	li	a4,7
    4000366c:	cb6740e3          	blt	a4,s6,4000330c <_svfprintf_r+0x18bc>
    40003670:	001b0b1b          	addiw	s6,s6,1
    40003674:	01078313          	addi	t1,a5,16
    40003678:	00078413          	mv	s0,a5
    4000367c:	ca9fe06f          	j	40002324 <_svfprintf_r+0x8d4>
    40003680:	2004f793          	andi	a5,s1,512
    40003684:	1a078263          	beqz	a5,40003828 <_svfprintf_r+0x1dd8>
    40003688:	0ffb7b13          	andi	s6,s6,255
    4000368c:	00e13c23          	sd	a4,24(sp)
    40003690:	00048a13          	mv	s4,s1
    40003694:	00100793          	li	a5,1
    40003698:	e60fe06f          	j	40001cf8 <_svfprintf_r+0x2a8>
    4000369c:	2004f793          	andi	a5,s1,512
    400036a0:	16078863          	beqz	a5,40003810 <_svfprintf_r+0x1dc0>
    400036a4:	01813783          	ld	a5,24(sp)
    400036a8:	00048a13          	mv	s4,s1
    400036ac:	00e13c23          	sd	a4,24(sp)
    400036b0:	00078b03          	lb	s6,0(a5)
    400036b4:	000b0793          	mv	a5,s6
    400036b8:	8edfe06f          	j	40001fa4 <_svfprintf_r+0x554>
    400036bc:	2004f793          	andi	a5,s1,512
    400036c0:	14078063          	beqz	a5,40003800 <_svfprintf_r+0x1db0>
    400036c4:	0ffb7b13          	andi	s6,s6,255
    400036c8:	00e13c23          	sd	a4,24(sp)
    400036cc:	841fe06f          	j	40001f0c <_svfprintf_r+0x4bc>
    400036d0:	2004f793          	andi	a5,s1,512
    400036d4:	12078063          	beqz	a5,400037f4 <_svfprintf_r+0x1da4>
    400036d8:	0ffb7b13          	andi	s6,s6,255
    400036dc:	decfe06f          	j	40001cc8 <_svfprintf_r+0x278>
    400036e0:	10813783          	ld	a5,264(sp)
    400036e4:	1407ce63          	bltz	a5,40003840 <_svfprintf_r+0x1df0>
    400036e8:	0df14783          	lbu	a5,223(sp)
    400036ec:	04700693          	li	a3,71
    400036f0:	00026d97          	auipc	s11,0x26
    400036f4:	d70d8d93          	addi	s11,s11,-656 # 40029460 <finsh_name_table+0x398>
    400036f8:	e286dee3          	bge	a3,s0,40003534 <_svfprintf_r+0x1ae4>
    400036fc:	00026d97          	auipc	s11,0x26
    40003700:	d6cd8d93          	addi	s11,s11,-660 # 40029468 <finsh_name_table+0x3a0>
    40003704:	e31ff06f          	j	40003534 <_svfprintf_r+0x1ae4>
    40003708:	0016861b          	addiw	a2,a3,1
    4000370c:	008787b3          	add	a5,a5,s0
    40003710:	01833023          	sd	s8,0(t1)
    40003714:	00833423          	sd	s0,8(t1)
    40003718:	12f13023          	sd	a5,288(sp)
    4000371c:	10c12c23          	sw	a2,280(sp)
    40003720:	00700693          	li	a3,7
    40003724:	01030313          	addi	t1,t1,16
    40003728:	eec6d063          	bge	a3,a2,40002e08 <_svfprintf_r+0x13b8>
    4000372c:	01013583          	ld	a1,16(sp)
    40003730:	11010613          	addi	a2,sp,272
    40003734:	000a8513          	mv	a0,s5
    40003738:	4c8070ef          	jal	ra,4000ac00 <__ssprint_r>
    4000373c:	00050463          	beqz	a0,40003744 <_svfprintf_r+0x1cf4>
    40003740:	cfcfe06f          	j	40001c3c <_svfprintf_r+0x1ec>
    40003744:	12013783          	ld	a5,288(sp)
    40003748:	19010313          	addi	t1,sp,400
    4000374c:	ebcff06f          	j	40002e08 <_svfprintf_r+0x13b8>
    40003750:	00026d97          	auipc	s11,0x26
    40003754:	d08d8d93          	addi	s11,s11,-760 # 40029458 <finsh_name_table+0x390>
    40003758:	dddff06f          	j	40003534 <_svfprintf_r+0x1ae4>
    4000375c:	01013583          	ld	a1,16(sp)
    40003760:	11010613          	addi	a2,sp,272
    40003764:	000a8513          	mv	a0,s5
    40003768:	498070ef          	jal	ra,4000ac00 <__ssprint_r>
    4000376c:	00050463          	beqz	a0,40003774 <_svfprintf_r+0x1d24>
    40003770:	cccfe06f          	j	40001c3c <_svfprintf_r+0x1ec>
    40003774:	12013783          	ld	a5,288(sp)
    40003778:	19010313          	addi	t1,sp,400
    4000377c:	e74ff06f          	j	40002df0 <_svfprintf_r+0x13a0>
    40003780:	09013783          	ld	a5,144(sp)
    40003784:	07813583          	ld	a1,120(sp)
    40003788:	00000493          	li	s1,0
    4000378c:	40f40433          	sub	s0,s0,a5
    40003790:	00078613          	mv	a2,a5
    40003794:	00040513          	mv	a0,s0
    40003798:	f49fd0ef          	jal	ra,400016e0 <strncpy>
    4000379c:	00194683          	lbu	a3,1(s2)
    400037a0:	00098513          	mv	a0,s3
    400037a4:	00a00593          	li	a1,10
    400037a8:	00d03733          	snez	a4,a3
    400037ac:	00e90933          	add	s2,s2,a4
    400037b0:	1700c0ef          	jal	ra,4000f920 <__udivdi3>
    400037b4:	00050993          	mv	s3,a0
    400037b8:	c95ff06f          	j	4000344c <_svfprintf_r+0x19fc>
    400037bc:	00600e13          	li	t3,6
    400037c0:	941ff06f          	j	40003100 <_svfprintf_r+0x16b0>
    400037c4:	03013703          	ld	a4,48(sp)
    400037c8:	40d7063b          	subw	a2,a4,a3
    400037cc:	00ed8733          	add	a4,s11,a4
    400037d0:	4177083b          	subw	a6,a4,s7
    400037d4:	00060413          	mv	s0,a2
    400037d8:	ecc85863          	bge	a6,a2,40002ea8 <_svfprintf_r+0x1458>
    400037dc:	0008041b          	sext.w	s0,a6
    400037e0:	ec8ff06f          	j	40002ea8 <_svfprintf_r+0x1458>
    400037e4:	00813783          	ld	a5,8(sp)
    400037e8:	00090d93          	mv	s11,s2
    400037ec:	00f71023          	sh	a5,0(a4)
    400037f0:	9f5fe06f          	j	400021e4 <_svfprintf_r+0x794>
    400037f4:	020b1b13          	slli	s6,s6,0x20
    400037f8:	020b5b13          	srli	s6,s6,0x20
    400037fc:	cccfe06f          	j	40001cc8 <_svfprintf_r+0x278>
    40003800:	020b1b13          	slli	s6,s6,0x20
    40003804:	020b5b13          	srli	s6,s6,0x20
    40003808:	00e13c23          	sd	a4,24(sp)
    4000380c:	f00fe06f          	j	40001f0c <_svfprintf_r+0x4bc>
    40003810:	01813783          	ld	a5,24(sp)
    40003814:	00048a13          	mv	s4,s1
    40003818:	00e13c23          	sd	a4,24(sp)
    4000381c:	0007ab03          	lw	s6,0(a5)
    40003820:	000b0793          	mv	a5,s6
    40003824:	f80fe06f          	j	40001fa4 <_svfprintf_r+0x554>
    40003828:	020b1b13          	slli	s6,s6,0x20
    4000382c:	020b5b13          	srli	s6,s6,0x20
    40003830:	00e13c23          	sd	a4,24(sp)
    40003834:	00048a13          	mv	s4,s1
    40003838:	00100793          	li	a5,1
    4000383c:	cbcfe06f          	j	40001cf8 <_svfprintf_r+0x2a8>
    40003840:	02d00793          	li	a5,45
    40003844:	0cf10fa3          	sb	a5,223(sp)
    40003848:	ea5ff06f          	j	400036ec <_svfprintf_r+0x1c9c>
    4000384c:	01013583          	ld	a1,16(sp)
    40003850:	11010613          	addi	a2,sp,272
    40003854:	000a8513          	mv	a0,s5
    40003858:	3a8070ef          	jal	ra,4000ac00 <__ssprint_r>
    4000385c:	00050463          	beqz	a0,40003864 <_svfprintf_r+0x1e14>
    40003860:	bdcfe06f          	j	40001c3c <_svfprintf_r+0x1ec>
    40003864:	0e812583          	lw	a1,232(sp)
    40003868:	12013783          	ld	a5,288(sp)
    4000386c:	11812683          	lw	a3,280(sp)
    40003870:	19010313          	addi	t1,sp,400
    40003874:	b405d4e3          	bgez	a1,400033bc <_svfprintf_r+0x196c>
    40003878:	d21ff06f          	j	40003598 <_svfprintf_r+0x1b48>
    4000387c:	00600b93          	li	s7,6
    40003880:	b7dfe06f          	j	400023fc <_svfprintf_r+0x9ac>
    40003884:	00048a13          	mv	s4,s1
    40003888:	fa5fe06f          	j	4000282c <_svfprintf_r+0xddc>
    4000388c:	04013d83          	ld	s11,64(sp)
    40003890:	03013703          	ld	a4,48(sp)
    40003894:	08913023          	sd	s1,128(sp)
    40003898:	02813903          	ld	s2,40(sp)
    4000389c:	00ed86b3          	add	a3,s11,a4
    400038a0:	08813983          	ld	s3,136(sp)
    400038a4:	06813483          	ld	s1,104(sp)
    400038a8:	03813a03          	ld	s4,56(sp)
    400038ac:	d776f663          	bgeu	a3,s7,40002e18 <_svfprintf_r+0x13c8>
    400038b0:	00068b93          	mv	s7,a3
    400038b4:	d64ff06f          	j	40002e18 <_svfprintf_r+0x13c8>
    400038b8:	02813703          	ld	a4,40(sp)
    400038bc:	ffd00793          	li	a5,-3
    400038c0:	00f74463          	blt	a4,a5,400038c8 <_svfprintf_r+0x1e78>
    400038c4:	00ebda63          	bge	s7,a4,400038d8 <_svfprintf_r+0x1e88>
    400038c8:	ffe4041b          	addiw	s0,s0,-2
    400038cc:	fdf47793          	andi	a5,s0,-33
    400038d0:	02f13c23          	sd	a5,56(sp)
    400038d4:	bfdfe06f          	j	400024d0 <_svfprintf_r+0xa80>
    400038d8:	03013783          	ld	a5,48(sp)
    400038dc:	02813703          	ld	a4,40(sp)
    400038e0:	1ef74c63          	blt	a4,a5,40003ad8 <_svfprintf_r+0x2088>
    400038e4:	04013783          	ld	a5,64(sp)
    400038e8:	00070c93          	mv	s9,a4
    400038ec:	0017f793          	andi	a5,a5,1
    400038f0:	00078663          	beqz	a5,400038fc <_svfprintf_r+0x1eac>
    400038f4:	05013783          	ld	a5,80(sp)
    400038f8:	00e78cbb          	addw	s9,a5,a4
    400038fc:	04013783          	ld	a5,64(sp)
    40003900:	4007f793          	andi	a5,a5,1024
    40003904:	00078663          	beqz	a5,40003910 <_svfprintf_r+0x1ec0>
    40003908:	02813783          	ld	a5,40(sp)
    4000390c:	68f04a63          	bgtz	a5,40003fa0 <_svfprintf_r+0x2550>
    40003910:	fffcca13          	not	s4,s9
    40003914:	43fa5a13          	srai	s4,s4,0x3f
    40003918:	014cfa33          	and	s4,s9,s4
    4000391c:	000a0a1b          	sext.w	s4,s4
    40003920:	06700413          	li	s0,103
    40003924:	04013023          	sd	zero,64(sp)
    40003928:	02013c23          	sd	zero,56(sp)
    4000392c:	ce9fe06f          	j	40002614 <_svfprintf_r+0xbc4>
    40003930:	0e810793          	addi	a5,sp,232
    40003934:	00300693          	li	a3,3
    40003938:	000e8593          	mv	a1,t4
    4000393c:	0f810893          	addi	a7,sp,248
    40003940:	0ec10813          	addi	a6,sp,236
    40003944:	000b8713          	mv	a4,s7
    40003948:	000c8613          	mv	a2,s9
    4000394c:	000a8513          	mv	a0,s5
    40003950:	02613823          	sd	t1,48(sp)
    40003954:	03d13423          	sd	t4,40(sp)
    40003958:	1f5040ef          	jal	ra,4000834c <_ldtoa_r>
    4000395c:	00054683          	lbu	a3,0(a0)
    40003960:	03000793          	li	a5,48
    40003964:	00050d93          	mv	s11,a0
    40003968:	02813e83          	ld	t4,40(sp)
    4000396c:	03013303          	ld	t1,48(sp)
    40003970:	0af68063          	beq	a3,a5,40003a10 <_svfprintf_r+0x1fc0>
    40003974:	0e812783          	lw	a5,232(sp)
    40003978:	017787b3          	add	a5,a5,s7
    4000397c:	00fd8a33          	add	s4,s11,a5
    40003980:	00000613          	li	a2,0
    40003984:	00000693          	li	a3,0
    40003988:	000e8513          	mv	a0,t4
    4000398c:	000c8593          	mv	a1,s9
    40003990:	02613423          	sd	t1,40(sp)
    40003994:	2410a0ef          	jal	ra,4000e3d4 <__eqtf2>
    40003998:	000a0793          	mv	a5,s4
    4000399c:	02813303          	ld	t1,40(sp)
    400039a0:	00051463          	bnez	a0,400039a8 <_svfprintf_r+0x1f58>
    400039a4:	afdfe06f          	j	400024a0 <_svfprintf_r+0xa50>
    400039a8:	0f813783          	ld	a5,248(sp)
    400039ac:	03000613          	li	a2,48
    400039b0:	0147e463          	bltu	a5,s4,400039b8 <_svfprintf_r+0x1f68>
    400039b4:	aedfe06f          	j	400024a0 <_svfprintf_r+0xa50>
    400039b8:	00178713          	addi	a4,a5,1
    400039bc:	0ee13c23          	sd	a4,248(sp)
    400039c0:	00c78023          	sb	a2,0(a5)
    400039c4:	0f813783          	ld	a5,248(sp)
    400039c8:	ff47e8e3          	bltu	a5,s4,400039b8 <_svfprintf_r+0x1f68>
    400039cc:	ad5fe06f          	j	400024a0 <_svfprintf_r+0xa50>
    400039d0:	0df14783          	lbu	a5,223(sp)
    400039d4:	00000b93          	li	s7,0
    400039d8:	00078463          	beqz	a5,400039e0 <_svfprintf_r+0x1f90>
    400039dc:	b74fe06f          	j	40001d50 <_svfprintf_r+0x300>
    400039e0:	ee0fe06f          	j	400020c0 <_svfprintf_r+0x670>
    400039e4:	11010613          	addi	a2,sp,272
    400039e8:	000a0593          	mv	a1,s4
    400039ec:	000a8513          	mv	a0,s5
    400039f0:	210070ef          	jal	ra,4000ac00 <__ssprint_r>
    400039f4:	00050463          	beqz	a0,400039fc <_svfprintf_r+0x1fac>
    400039f8:	a44fe06f          	j	40001c3c <_svfprintf_r+0x1ec>
    400039fc:	0004c603          	lbu	a2,0(s1)
    40003a00:	12013783          	ld	a5,288(sp)
    40003a04:	19010313          	addi	t1,sp,400
    40003a08:	00cb8bb3          	add	s7,s7,a2
    40003a0c:	841ff06f          	j	4000324c <_svfprintf_r+0x17fc>
    40003a10:	000e8513          	mv	a0,t4
    40003a14:	00000613          	li	a2,0
    40003a18:	00000693          	li	a3,0
    40003a1c:	000c8593          	mv	a1,s9
    40003a20:	02613823          	sd	t1,48(sp)
    40003a24:	03d13423          	sd	t4,40(sp)
    40003a28:	1ad0a0ef          	jal	ra,4000e3d4 <__eqtf2>
    40003a2c:	02813e83          	ld	t4,40(sp)
    40003a30:	03013303          	ld	t1,48(sp)
    40003a34:	f40500e3          	beqz	a0,40003974 <_svfprintf_r+0x1f24>
    40003a38:	00100693          	li	a3,1
    40003a3c:	417687bb          	subw	a5,a3,s7
    40003a40:	0ef12423          	sw	a5,232(sp)
    40003a44:	f35ff06f          	j	40003978 <_svfprintf_r+0x1f28>
    40003a48:	02d00793          	li	a5,45
    40003a4c:	0cf10fa3          	sb	a5,223(sp)
    40003a50:	ad5ff06f          	j	40003524 <_svfprintf_r+0x1ad4>
    40003a54:	01013583          	ld	a1,16(sp)
    40003a58:	11010613          	addi	a2,sp,272
    40003a5c:	000a8513          	mv	a0,s5
    40003a60:	1a0070ef          	jal	ra,4000ac00 <__ssprint_r>
    40003a64:	00050463          	beqz	a0,40003a6c <_svfprintf_r+0x201c>
    40003a68:	9d4fe06f          	j	40001c3c <_svfprintf_r+0x1ec>
    40003a6c:	0e812683          	lw	a3,232(sp)
    40003a70:	12013783          	ld	a5,288(sp)
    40003a74:	19010313          	addi	t1,sp,400
    40003a78:	be4ff06f          	j	40002e5c <_svfprintf_r+0x140c>
    40003a7c:	0df14783          	lbu	a5,223(sp)
    40003a80:	01613c23          	sd	s6,24(sp)
    40003a84:	04013023          	sd	zero,64(sp)
    40003a88:	02013c23          	sd	zero,56(sp)
    40003a8c:	02013423          	sd	zero,40(sp)
    40003a90:	000b8a13          	mv	s4,s7
    40003a94:	000b8c93          	mv	s9,s7
    40003a98:	00000b93          	li	s7,0
    40003a9c:	00078463          	beqz	a5,40003aa4 <_svfprintf_r+0x2054>
    40003aa0:	ab0fe06f          	j	40001d50 <_svfprintf_r+0x300>
    40003aa4:	e1cfe06f          	j	400020c0 <_svfprintf_r+0x670>
    40003aa8:	01013583          	ld	a1,16(sp)
    40003aac:	11010613          	addi	a2,sp,272
    40003ab0:	000a8513          	mv	a0,s5
    40003ab4:	14c070ef          	jal	ra,4000ac00 <__ssprint_r>
    40003ab8:	00050463          	beqz	a0,40003ac0 <_svfprintf_r+0x2070>
    40003abc:	980fe06f          	j	40001c3c <_svfprintf_r+0x1ec>
    40003ac0:	0e812603          	lw	a2,232(sp)
    40003ac4:	03013703          	ld	a4,48(sp)
    40003ac8:	12013783          	ld	a5,288(sp)
    40003acc:	19010313          	addi	t1,sp,400
    40003ad0:	40c7063b          	subw	a2,a4,a2
    40003ad4:	bd4ff06f          	j	40002ea8 <_svfprintf_r+0x1458>
    40003ad8:	03013703          	ld	a4,48(sp)
    40003adc:	05013783          	ld	a5,80(sp)
    40003ae0:	06700413          	li	s0,103
    40003ae4:	00e78cbb          	addw	s9,a5,a4
    40003ae8:	02813703          	ld	a4,40(sp)
    40003aec:	58e05a63          	blez	a4,40004080 <_svfprintf_r+0x2630>
    40003af0:	04013783          	ld	a5,64(sp)
    40003af4:	4007f793          	andi	a5,a5,1024
    40003af8:	4a079663          	bnez	a5,40003fa4 <_svfprintf_r+0x2554>
    40003afc:	fffcca13          	not	s4,s9
    40003b00:	43fa5a13          	srai	s4,s4,0x3f
    40003b04:	014cfa33          	and	s4,s9,s4
    40003b08:	000a0a1b          	sext.w	s4,s4
    40003b0c:	e19ff06f          	j	40003924 <_svfprintf_r+0x1ed4>
    40003b10:	04013783          	ld	a5,64(sp)
    40003b14:	02813703          	ld	a4,40(sp)
    40003b18:	0017f793          	andi	a5,a5,1
    40003b1c:	00fbe7b3          	or	a5,s7,a5
    40003b20:	0007879b          	sext.w	a5,a5
    40003b24:	58e05863          	blez	a4,400040b4 <_svfprintf_r+0x2664>
    40003b28:	54079263          	bnez	a5,4000406c <_svfprintf_r+0x261c>
    40003b2c:	02813c83          	ld	s9,40(sp)
    40003b30:	06600413          	li	s0,102
    40003b34:	fbdff06f          	j	40003af0 <_svfprintf_r+0x20a0>
    40003b38:	03000793          	li	a5,48
    40003b3c:	0ef10023          	sb	a5,224(sp)
    40003b40:	05800713          	li	a4,88
    40003b44:	0024e793          	ori	a5,s1,2
    40003b48:	0007879b          	sext.w	a5,a5
    40003b4c:	0ee100a3          	sb	a4,225(sp)
    40003b50:	06300693          	li	a3,99
    40003b54:	04f13023          	sd	a5,64(sp)
    40003b58:	02013023          	sd	zero,32(sp)
    40003b5c:	12810d93          	addi	s11,sp,296
    40003b60:	2b76cc63          	blt	a3,s7,40003e18 <_svfprintf_r+0x23c8>
    40003b64:	10813c83          	ld	s9,264(sp)
    40003b68:	fdf47793          	andi	a5,s0,-33
    40003b6c:	1024e493          	ori	s1,s1,258
    40003b70:	02f13c23          	sd	a5,56(sp)
    40003b74:	06013423          	sd	zero,104(sp)
    40003b78:	0004849b          	sext.w	s1,s1
    40003b7c:	10013e83          	ld	t4,256(sp)
    40003b80:	220cc263          	bltz	s9,40003da4 <_svfprintf_r+0x2354>
    40003b84:	06100793          	li	a5,97
    40003b88:	3af40663          	beq	s0,a5,40003f34 <_svfprintf_r+0x24e4>
    40003b8c:	04100793          	li	a5,65
    40003b90:	00f40463          	beq	s0,a5,40003b98 <_svfprintf_r+0x2148>
    40003b94:	891fe06f          	j	40002424 <_svfprintf_r+0x9d4>
    40003b98:	000e8513          	mv	a0,t4
    40003b9c:	000c8593          	mv	a1,s9
    40003ba0:	08613423          	sd	t1,136(sp)
    40003ba4:	3590b0ef          	jal	ra,4000f6fc <__trunctfdf2>
    40003ba8:	0e810593          	addi	a1,sp,232
    40003bac:	6a5060ef          	jal	ra,4000aa50 <frexp>
    40003bb0:	2590b0ef          	jal	ra,4000f608 <__extenddftf2>
    40003bb4:	00026797          	auipc	a5,0x26
    40003bb8:	88c78793          	addi	a5,a5,-1908 # 40029440 <finsh_name_table+0x378>
    40003bbc:	0087b683          	ld	a3,8(a5)
    40003bc0:	00000613          	li	a2,0
    40003bc4:	25d0a0ef          	jal	ra,4000e620 <__multf3>
    40003bc8:	00000613          	li	a2,0
    40003bcc:	00000693          	li	a3,0
    40003bd0:	02a13823          	sd	a0,48(sp)
    40003bd4:	02b13423          	sd	a1,40(sp)
    40003bd8:	7fc0a0ef          	jal	ra,4000e3d4 <__eqtf2>
    40003bdc:	02813f03          	ld	t5,40(sp)
    40003be0:	03013e83          	ld	t4,48(sp)
    40003be4:	08813303          	ld	t1,136(sp)
    40003be8:	00051663          	bnez	a0,40003bf4 <_svfprintf_r+0x21a4>
    40003bec:	00100793          	li	a5,1
    40003bf0:	0ef12423          	sw	a5,232(sp)
    40003bf4:	00026797          	auipc	a5,0x26
    40003bf8:	89478793          	addi	a5,a5,-1900 # 40029488 <finsh_name_table+0x3c0>
    40003bfc:	02f13423          	sd	a5,40(sp)
    40003c00:	000b879b          	sext.w	a5,s7
    40003c04:	02079c93          	slli	s9,a5,0x20
    40003c08:	00fd873b          	addw	a4,s11,a5
    40003c0c:	00026797          	auipc	a5,0x26
    40003c10:	81478793          	addi	a5,a5,-2028 # 40029420 <finsh_name_table+0x358>
    40003c14:	0087b783          	ld	a5,8(a5)
    40003c18:	020cdc93          	srli	s9,s9,0x20
    40003c1c:	001c8c93          	addi	s9,s9,1
    40003c20:	0a913023          	sd	s1,160(sp)
    40003c24:	0b313423          	sd	s3,168(sp)
    40003c28:	0d513023          	sd	s5,192(sp)
    40003c2c:	019d8cb3          	add	s9,s11,s9
    40003c30:	000d8b13          	mv	s6,s11
    40003c34:	02f13823          	sd	a5,48(sp)
    40003c38:	09213423          	sd	s2,136(sp)
    40003c3c:	08813c23          	sd	s0,152(sp)
    40003c40:	0b713823          	sd	s7,176(sp)
    40003c44:	0a613c23          	sd	t1,184(sp)
    40003c48:	0db13423          	sd	s11,200(sp)
    40003c4c:	000e8993          	mv	s3,t4
    40003c50:	000f0a93          	mv	s5,t5
    40003c54:	00070493          	mv	s1,a4
    40003c58:	0180006f          	j	40003c70 <_svfprintf_r+0x2220>
    40003c5c:	00000613          	li	a2,0
    40003c60:	00000693          	li	a3,0
    40003c64:	7700a0ef          	jal	ra,4000e3d4 <__eqtf2>
    40003c68:	28050463          	beqz	a0,40003ef0 <_svfprintf_r+0x24a0>
    40003c6c:	000b8b13          	mv	s6,s7
    40003c70:	03013683          	ld	a3,48(sp)
    40003c74:	00000613          	li	a2,0
    40003c78:	00098513          	mv	a0,s3
    40003c7c:	000a8593          	mv	a1,s5
    40003c80:	1a10a0ef          	jal	ra,4000e620 <__multf3>
    40003c84:	00058913          	mv	s2,a1
    40003c88:	00050413          	mv	s0,a0
    40003c8c:	0850b0ef          	jal	ra,4000f510 <__fixtfsi>
    40003c90:	00050a1b          	sext.w	s4,a0
    40003c94:	000a0513          	mv	a0,s4
    40003c98:	0e10b0ef          	jal	ra,4000f578 <__floatsitf>
    40003c9c:	00050613          	mv	a2,a0
    40003ca0:	00058693          	mv	a3,a1
    40003ca4:	00040513          	mv	a0,s0
    40003ca8:	00090593          	mv	a1,s2
    40003cac:	0940b0ef          	jal	ra,4000ed40 <__subtf3>
    40003cb0:	02813783          	ld	a5,40(sp)
    40003cb4:	001b0b93          	addi	s7,s6,1
    40003cb8:	00050d93          	mv	s11,a0
    40003cbc:	014787b3          	add	a5,a5,s4
    40003cc0:	0007c703          	lbu	a4,0(a5)
    40003cc4:	00058413          	mv	s0,a1
    40003cc8:	00050993          	mv	s3,a0
    40003ccc:	feeb8fa3          	sb	a4,-1(s7)
    40003cd0:	00058a93          	mv	s5,a1
    40003cd4:	4174893b          	subw	s2,s1,s7
    40003cd8:	f97c92e3          	bne	s9,s7,40003c5c <_svfprintf_r+0x220c>
    40003cdc:	08813903          	ld	s2,136(sp)
    40003ce0:	0a013483          	ld	s1,160(sp)
    40003ce4:	0a813983          	ld	s3,168(sp)
    40003ce8:	0b013b83          	ld	s7,176(sp)
    40003cec:	0b813303          	ld	t1,184(sp)
    40003cf0:	0c013a83          	ld	s5,192(sp)
    40003cf4:	0c813d83          	ld	s11,200(sp)
    40003cf8:	09813403          	ld	s0,152(sp)
    40003cfc:	fff00793          	li	a5,-1
    40003d00:	00050893          	mv	a7,a0
    40003d04:	00058813          	mv	a6,a1
    40003d08:	02f13823          	sd	a5,48(sp)
    40003d0c:	00025797          	auipc	a5,0x25
    40003d10:	72478793          	addi	a5,a5,1828 # 40029430 <finsh_name_table+0x368>
    40003d14:	0087b783          	ld	a5,8(a5)
    40003d18:	00000613          	li	a2,0
    40003d1c:	00088513          	mv	a0,a7
    40003d20:	00078693          	mv	a3,a5
    40003d24:	00080593          	mv	a1,a6
    40003d28:	08613c23          	sd	t1,152(sp)
    40003d2c:	08f13423          	sd	a5,136(sp)
    40003d30:	0b113423          	sd	a7,168(sp)
    40003d34:	0b013023          	sd	a6,160(sp)
    40003d38:	7280a0ef          	jal	ra,4000e460 <__getf2>
    40003d3c:	09813303          	ld	t1,152(sp)
    40003d40:	06a04e63          	bgtz	a0,40003dbc <_svfprintf_r+0x236c>
    40003d44:	0a813883          	ld	a7,168(sp)
    40003d48:	0a013803          	ld	a6,160(sp)
    40003d4c:	08813683          	ld	a3,136(sp)
    40003d50:	00000613          	li	a2,0
    40003d54:	00088513          	mv	a0,a7
    40003d58:	00080593          	mv	a1,a6
    40003d5c:	6780a0ef          	jal	ra,4000e3d4 <__eqtf2>
    40003d60:	09813303          	ld	t1,152(sp)
    40003d64:	00051663          	bnez	a0,40003d70 <_svfprintf_r+0x2320>
    40003d68:	001a7a13          	andi	s4,s4,1
    40003d6c:	040a1863          	bnez	s4,40003dbc <_svfprintf_r+0x236c>
    40003d70:	03013703          	ld	a4,48(sp)
    40003d74:	03000693          	li	a3,48
    40003d78:	00170793          	addi	a5,a4,1
    40003d7c:	00fc87b3          	add	a5,s9,a5
    40003d80:	00074863          	bltz	a4,40003d90 <_svfprintf_r+0x2340>
    40003d84:	001c8c93          	addi	s9,s9,1
    40003d88:	fedc8fa3          	sb	a3,-1(s9)
    40003d8c:	ff979ce3          	bne	a5,s9,40003d84 <_svfprintf_r+0x2334>
    40003d90:	41bc87bb          	subw	a5,s9,s11
    40003d94:	02f13823          	sd	a5,48(sp)
    40003d98:	f10fe06f          	j	400024a8 <_svfprintf_r+0xa58>
    40003d9c:	02013023          	sd	zero,32(sp)
    40003da0:	00078493          	mv	s1,a5
    40003da4:	fff00793          	li	a5,-1
    40003da8:	03f79793          	slli	a5,a5,0x3f
    40003dac:	00fcccb3          	xor	s9,s9,a5
    40003db0:	02d00793          	li	a5,45
    40003db4:	06f13423          	sd	a5,104(sp)
    40003db8:	dcdff06f          	j	40003b84 <_svfprintf_r+0x2134>
    40003dbc:	02813783          	ld	a5,40(sp)
    40003dc0:	0f613c23          	sd	s6,248(sp)
    40003dc4:	fffcc683          	lbu	a3,-1(s9)
    40003dc8:	00f7c603          	lbu	a2,15(a5)
    40003dcc:	000c8793          	mv	a5,s9
    40003dd0:	02d61063          	bne	a2,a3,40003df0 <_svfprintf_r+0x23a0>
    40003dd4:	03000593          	li	a1,48
    40003dd8:	feb78fa3          	sb	a1,-1(a5)
    40003ddc:	0f813783          	ld	a5,248(sp)
    40003de0:	fff78713          	addi	a4,a5,-1
    40003de4:	0ee13c23          	sd	a4,248(sp)
    40003de8:	fff7c683          	lbu	a3,-1(a5)
    40003dec:	fed606e3          	beq	a2,a3,40003dd8 <_svfprintf_r+0x2388>
    40003df0:	0016861b          	addiw	a2,a3,1
    40003df4:	03900593          	li	a1,57
    40003df8:	0ff67613          	andi	a2,a2,255
    40003dfc:	00b68663          	beq	a3,a1,40003e08 <_svfprintf_r+0x23b8>
    40003e00:	fec78fa3          	sb	a2,-1(a5)
    40003e04:	f8dff06f          	j	40003d90 <_svfprintf_r+0x2340>
    40003e08:	02813703          	ld	a4,40(sp)
    40003e0c:	00a74603          	lbu	a2,10(a4)
    40003e10:	fec78fa3          	sb	a2,-1(a5)
    40003e14:	f7dff06f          	j	40003d90 <_svfprintf_r+0x2340>
    40003e18:	001b859b          	addiw	a1,s7,1
    40003e1c:	000a8513          	mv	a0,s5
    40003e20:	02613023          	sd	t1,32(sp)
    40003e24:	0c9210ef          	jal	ra,400256ec <_malloc_r>
    40003e28:	00050d93          	mv	s11,a0
    40003e2c:	02013303          	ld	t1,32(sp)
    40003e30:	30050e63          	beqz	a0,4000414c <_svfprintf_r+0x26fc>
    40003e34:	02a13023          	sd	a0,32(sp)
    40003e38:	d2dff06f          	j	40003b64 <_svfprintf_r+0x2114>
    40003e3c:	03000793          	li	a5,48
    40003e40:	0ef10023          	sb	a5,224(sp)
    40003e44:	07800713          	li	a4,120
    40003e48:	cfdff06f          	j	40003b44 <_svfprintf_r+0x20f4>
    40003e4c:	001b8a1b          	addiw	s4,s7,1
    40003e50:	000a0713          	mv	a4,s4
    40003e54:	000e8593          	mv	a1,t4
    40003e58:	0f810893          	addi	a7,sp,248
    40003e5c:	0ec10813          	addi	a6,sp,236
    40003e60:	0e810793          	addi	a5,sp,232
    40003e64:	00200693          	li	a3,2
    40003e68:	000c8613          	mv	a2,s9
    40003e6c:	000a8513          	mv	a0,s5
    40003e70:	03d13423          	sd	t4,40(sp)
    40003e74:	4d8040ef          	jal	ra,4000834c <_ldtoa_r>
    40003e78:	00050d93          	mv	s11,a0
    40003e7c:	02813e83          	ld	t4,40(sp)
    40003e80:	03013303          	ld	t1,48(sp)
    40003e84:	014d8a33          	add	s4,s11,s4
    40003e88:	af9ff06f          	j	40003980 <_svfprintf_r+0x1f30>
    40003e8c:	0016869b          	addiw	a3,a3,1
    40003e90:	008787b3          	add	a5,a5,s0
    40003e94:	01833023          	sd	s8,0(t1)
    40003e98:	00833423          	sd	s0,8(t1)
    40003e9c:	12f13023          	sd	a5,288(sp)
    40003ea0:	10d12c23          	sw	a3,280(sp)
    40003ea4:	00700613          	li	a2,7
    40003ea8:	d0d65863          	bge	a2,a3,400033b8 <_svfprintf_r+0x1968>
    40003eac:	01013583          	ld	a1,16(sp)
    40003eb0:	11010613          	addi	a2,sp,272
    40003eb4:	000a8513          	mv	a0,s5
    40003eb8:	549060ef          	jal	ra,4000ac00 <__ssprint_r>
    40003ebc:	00050463          	beqz	a0,40003ec4 <_svfprintf_r+0x2474>
    40003ec0:	d7dfd06f          	j	40001c3c <_svfprintf_r+0x1ec>
    40003ec4:	12013783          	ld	a5,288(sp)
    40003ec8:	11812683          	lw	a3,280(sp)
    40003ecc:	19010313          	addi	t1,sp,400
    40003ed0:	cecff06f          	j	400033bc <_svfprintf_r+0x196c>
    40003ed4:	00f72023          	sw	a5,0(a4)
    40003ed8:	00090d93          	mv	s11,s2
    40003edc:	b08fe06f          	j	400021e4 <_svfprintf_r+0x794>
    40003ee0:	000b8463          	beqz	s7,40003ee8 <_svfprintf_r+0x2498>
    40003ee4:	d18fe06f          	j	400023fc <_svfprintf_r+0x9ac>
    40003ee8:	00100b93          	li	s7,1
    40003eec:	d10fe06f          	j	400023fc <_svfprintf_r+0x9ac>
    40003ef0:	000b8793          	mv	a5,s7
    40003ef4:	03213823          	sd	s2,48(sp)
    40003ef8:	000d8893          	mv	a7,s11
    40003efc:	00040813          	mv	a6,s0
    40003f00:	0a013483          	ld	s1,160(sp)
    40003f04:	0a813983          	ld	s3,168(sp)
    40003f08:	0b813303          	ld	t1,184(sp)
    40003f0c:	08813903          	ld	s2,136(sp)
    40003f10:	0b013b83          	ld	s7,176(sp)
    40003f14:	0c013a83          	ld	s5,192(sp)
    40003f18:	0c813d83          	ld	s11,200(sp)
    40003f1c:	09813403          	ld	s0,152(sp)
    40003f20:	00078c93          	mv	s9,a5
    40003f24:	de9ff06f          	j	40003d0c <_svfprintf_r+0x22bc>
    40003f28:	fff00793          	li	a5,-1
    40003f2c:	00f13423          	sd	a5,8(sp)
    40003f30:	d35fd06f          	j	40001c64 <_svfprintf_r+0x214>
    40003f34:	000e8513          	mv	a0,t4
    40003f38:	000c8593          	mv	a1,s9
    40003f3c:	08613423          	sd	t1,136(sp)
    40003f40:	7bc0b0ef          	jal	ra,4000f6fc <__trunctfdf2>
    40003f44:	0e810593          	addi	a1,sp,232
    40003f48:	309060ef          	jal	ra,4000aa50 <frexp>
    40003f4c:	6bc0b0ef          	jal	ra,4000f608 <__extenddftf2>
    40003f50:	00025797          	auipc	a5,0x25
    40003f54:	4f078793          	addi	a5,a5,1264 # 40029440 <finsh_name_table+0x378>
    40003f58:	0087b683          	ld	a3,8(a5)
    40003f5c:	00000613          	li	a2,0
    40003f60:	6c00a0ef          	jal	ra,4000e620 <__multf3>
    40003f64:	00000613          	li	a2,0
    40003f68:	00000693          	li	a3,0
    40003f6c:	02a13823          	sd	a0,48(sp)
    40003f70:	02b13423          	sd	a1,40(sp)
    40003f74:	4600a0ef          	jal	ra,4000e3d4 <__eqtf2>
    40003f78:	02813f03          	ld	t5,40(sp)
    40003f7c:	03013e83          	ld	t4,48(sp)
    40003f80:	08813303          	ld	t1,136(sp)
    40003f84:	00051663          	bnez	a0,40003f90 <_svfprintf_r+0x2540>
    40003f88:	00100793          	li	a5,1
    40003f8c:	0ef12423          	sw	a5,232(sp)
    40003f90:	00025797          	auipc	a5,0x25
    40003f94:	4e078793          	addi	a5,a5,1248 # 40029470 <finsh_name_table+0x3a8>
    40003f98:	02f13423          	sd	a5,40(sp)
    40003f9c:	c65ff06f          	j	40003c00 <_svfprintf_r+0x21b0>
    40003fa0:	06700413          	li	s0,103
    40003fa4:	08013503          	ld	a0,128(sp)
    40003fa8:	02813703          	ld	a4,40(sp)
    40003fac:	04013023          	sd	zero,64(sp)
    40003fb0:	00054783          	lbu	a5,0(a0)
    40003fb4:	02013c23          	sd	zero,56(sp)
    40003fb8:	0ff00593          	li	a1,255
    40003fbc:	04b78063          	beq	a5,a1,40003ffc <_svfprintf_r+0x25ac>
    40003fc0:	0007869b          	sext.w	a3,a5
    40003fc4:	02e6dc63          	bge	a3,a4,40003ffc <_svfprintf_r+0x25ac>
    40003fc8:	00154603          	lbu	a2,1(a0)
    40003fcc:	40d7073b          	subw	a4,a4,a3
    40003fd0:	00060e63          	beqz	a2,40003fec <_svfprintf_r+0x259c>
    40003fd4:	03813783          	ld	a5,56(sp)
    40003fd8:	00150513          	addi	a0,a0,1
    40003fdc:	0017879b          	addiw	a5,a5,1
    40003fe0:	02f13c23          	sd	a5,56(sp)
    40003fe4:	00060793          	mv	a5,a2
    40003fe8:	fd5ff06f          	j	40003fbc <_svfprintf_r+0x256c>
    40003fec:	04013683          	ld	a3,64(sp)
    40003ff0:	0016869b          	addiw	a3,a3,1
    40003ff4:	04d13023          	sd	a3,64(sp)
    40003ff8:	fc5ff06f          	j	40003fbc <_svfprintf_r+0x256c>
    40003ffc:	02e13423          	sd	a4,40(sp)
    40004000:	03813783          	ld	a5,56(sp)
    40004004:	04013703          	ld	a4,64(sp)
    40004008:	09013583          	ld	a1,144(sp)
    4000400c:	08a13023          	sd	a0,128(sp)
    40004010:	00e7853b          	addw	a0,a5,a4
    40004014:	08613423          	sd	t1,136(sp)
    40004018:	09d0b0ef          	jal	ra,4000f8b4 <__muldi3>
    4000401c:	0195053b          	addw	a0,a0,s9
    40004020:	00050c9b          	sext.w	s9,a0
    40004024:	fffcca13          	not	s4,s9
    40004028:	43fa5a13          	srai	s4,s4,0x3f
    4000402c:	01457533          	and	a0,a0,s4
    40004030:	00050a1b          	sext.w	s4,a0
    40004034:	08813303          	ld	t1,136(sp)
    40004038:	ddcfe06f          	j	40002614 <_svfprintf_r+0xbc4>
    4000403c:	0f210793          	addi	a5,sp,242
    40004040:	00069863          	bnez	a3,40004050 <_svfprintf_r+0x2600>
    40004044:	03000793          	li	a5,48
    40004048:	0ef10923          	sb	a5,242(sp)
    4000404c:	0f310793          	addi	a5,sp,243
    40004050:	21010713          	addi	a4,sp,528
    40004054:	030a0a1b          	addiw	s4,s4,48
    40004058:	40e786b3          	sub	a3,a5,a4
    4000405c:	01478023          	sb	s4,0(a5)
    40004060:	1216879b          	addiw	a5,a3,289
    40004064:	06f13823          	sd	a5,112(sp)
    40004068:	d5cfe06f          	j	400025c4 <_svfprintf_r+0xb74>
    4000406c:	05013783          	ld	a5,80(sp)
    40004070:	06600413          	li	s0,102
    40004074:	00e78cbb          	addw	s9,a5,a4
    40004078:	017c8cbb          	addw	s9,s9,s7
    4000407c:	a75ff06f          	j	40003af0 <_svfprintf_r+0x20a0>
    40004080:	40ec87bb          	subw	a5,s9,a4
    40004084:	0017879b          	addiw	a5,a5,1
    40004088:	00078c9b          	sext.w	s9,a5
    4000408c:	fffcca13          	not	s4,s9
    40004090:	43fa5a13          	srai	s4,s4,0x3f
    40004094:	0147f7b3          	and	a5,a5,s4
    40004098:	00078a1b          	sext.w	s4,a5
    4000409c:	889ff06f          	j	40003924 <_svfprintf_r+0x1ed4>
    400040a0:	04013703          	ld	a4,64(sp)
    400040a4:	00177693          	andi	a3,a4,1
    400040a8:	00069463          	bnez	a3,400040b0 <_svfprintf_r+0x2660>
    400040ac:	d3cfe06f          	j	400025e8 <_svfprintf_r+0xb98>
    400040b0:	d30fe06f          	j	400025e0 <_svfprintf_r+0xb90>
    400040b4:	00079a63          	bnez	a5,400040c8 <_svfprintf_r+0x2678>
    400040b8:	00100a13          	li	s4,1
    400040bc:	06600413          	li	s0,102
    400040c0:	00100c93          	li	s9,1
    400040c4:	861ff06f          	j	40003924 <_svfprintf_r+0x1ed4>
    400040c8:	05013783          	ld	a5,80(sp)
    400040cc:	06600413          	li	s0,102
    400040d0:	0017879b          	addiw	a5,a5,1
    400040d4:	01778e3b          	addw	t3,a5,s7
    400040d8:	000e0c9b          	sext.w	s9,t3
    400040dc:	fffcca13          	not	s4,s9
    400040e0:	43fa5a13          	srai	s4,s4,0x3f
    400040e4:	014e7e33          	and	t3,t3,s4
    400040e8:	000e0a1b          	sext.w	s4,t3
    400040ec:	839ff06f          	j	40003924 <_svfprintf_r+0x1ed4>
    400040f0:	00030793          	mv	a5,t1
    400040f4:	d60ff06f          	j	40003654 <_svfprintf_r+0x1c04>
    400040f8:	01813703          	ld	a4,24(sp)
    400040fc:	00072b83          	lw	s7,0(a4)
    40004100:	00870713          	addi	a4,a4,8
    40004104:	000bd463          	bgez	s7,4000410c <_svfprintf_r+0x26bc>
    40004108:	fff00b93          	li	s7,-1
    4000410c:	00194403          	lbu	s0,1(s2)
    40004110:	00e13c23          	sd	a4,24(sp)
    40004114:	00078913          	mv	s2,a5
    40004118:	aa1fd06f          	j	40001bb8 <_svfprintf_r+0x168>
    4000411c:	000b8a13          	mv	s4,s7
    40004120:	014d8a33          	add	s4,s11,s4
    40004124:	85dff06f          	j	40003980 <_svfprintf_r+0x1f30>
    40004128:	00200793          	li	a5,2
    4000412c:	06f13823          	sd	a5,112(sp)
    40004130:	c94fe06f          	j	400025c4 <_svfprintf_r+0xb74>
    40004134:	04813703          	ld	a4,72(sp)
    40004138:	00c00793          	li	a5,12
    4000413c:	00f72023          	sw	a5,0(a4)
    40004140:	fff00793          	li	a5,-1
    40004144:	00f13423          	sd	a5,8(sp)
    40004148:	b1dfd06f          	j	40001c64 <_svfprintf_r+0x214>
    4000414c:	01013683          	ld	a3,16(sp)
    40004150:	0106d783          	lhu	a5,16(a3)
    40004154:	0407e713          	ori	a4,a5,64
    40004158:	00070793          	mv	a5,a4
    4000415c:	00e69823          	sh	a4,16(a3)
    40004160:	af9fd06f          	j	40001c58 <_svfprintf_r+0x208>

0000000040004164 <_vfprintf_r>:
    40004164:	d8010113          	addi	sp,sp,-640
    40004168:	26113c23          	sd	ra,632(sp)
    4000416c:	26813823          	sd	s0,624(sp)
    40004170:	25613023          	sd	s6,576(sp)
    40004174:	00b13023          	sd	a1,0(sp)
    40004178:	00060b13          	mv	s6,a2
    4000417c:	00d13823          	sd	a3,16(sp)
    40004180:	26913423          	sd	s1,616(sp)
    40004184:	27213023          	sd	s2,608(sp)
    40004188:	25313c23          	sd	s3,600(sp)
    4000418c:	25413823          	sd	s4,592(sp)
    40004190:	25513423          	sd	s5,584(sp)
    40004194:	23713c23          	sd	s7,568(sp)
    40004198:	23813823          	sd	s8,560(sp)
    4000419c:	23913423          	sd	s9,552(sp)
    400041a0:	23a13023          	sd	s10,544(sp)
    400041a4:	21b13c23          	sd	s11,536(sp)
    400041a8:	00050413          	mv	s0,a0
    400041ac:	02a13823          	sd	a0,48(sp)
    400041b0:	518050ef          	jal	ra,400096c8 <_localeconv_r>
    400041b4:	00053783          	ld	a5,0(a0)
    400041b8:	00078513          	mv	a0,a5
    400041bc:	04f13c23          	sd	a5,88(sp)
    400041c0:	b50fd0ef          	jal	ra,40001510 <strlen>
    400041c4:	04a13423          	sd	a0,72(sp)
    400041c8:	10013023          	sd	zero,256(sp)
    400041cc:	10013423          	sd	zero,264(sp)
    400041d0:	00040663          	beqz	s0,400041dc <_vfprintf_r+0x78>
    400041d4:	05042783          	lw	a5,80(s0)
    400041d8:	54078ee3          	beqz	a5,40004f34 <_vfprintf_r+0xdd0>
    400041dc:	00013703          	ld	a4,0(sp)
    400041e0:	01071683          	lh	a3,16(a4)
    400041e4:	03069793          	slli	a5,a3,0x30
    400041e8:	0307d793          	srli	a5,a5,0x30
    400041ec:	03279613          	slli	a2,a5,0x32
    400041f0:	02064663          	bltz	a2,4000421c <_vfprintf_r+0xb8>
    400041f4:	0ac72603          	lw	a2,172(a4)
    400041f8:	000027b7          	lui	a5,0x2
    400041fc:	00f6e7b3          	or	a5,a3,a5
    40004200:	ffffe6b7          	lui	a3,0xffffe
    40004204:	fff68693          	addi	a3,a3,-1 # ffffffffffffdfff <_heap_begin+0xffffffffbff3dfff>
    40004208:	00d676b3          	and	a3,a2,a3
    4000420c:	00f71823          	sh	a5,16(a4)
    40004210:	03079793          	slli	a5,a5,0x30
    40004214:	0ad72623          	sw	a3,172(a4)
    40004218:	0307d793          	srli	a5,a5,0x30
    4000421c:	0087f693          	andi	a3,a5,8
    40004220:	14068463          	beqz	a3,40004368 <_vfprintf_r+0x204>
    40004224:	00013703          	ld	a4,0(sp)
    40004228:	01873683          	ld	a3,24(a4)
    4000422c:	12068e63          	beqz	a3,40004368 <_vfprintf_r+0x204>
    40004230:	01a7f793          	andi	a5,a5,26
    40004234:	00a00693          	li	a3,10
    40004238:	14d78c63          	beq	a5,a3,40004390 <_vfprintf_r+0x22c>
    4000423c:	19010793          	addi	a5,sp,400
    40004240:	000b0d93          	mv	s11,s6
    40004244:	10f13823          	sd	a5,272(sp)
    40004248:	00078313          	mv	t1,a5
    4000424c:	000dc783          	lbu	a5,0(s11)
    40004250:	12013023          	sd	zero,288(sp)
    40004254:	10012c23          	sw	zero,280(sp)
    40004258:	02013423          	sd	zero,40(sp)
    4000425c:	04013823          	sd	zero,80(sp)
    40004260:	06013423          	sd	zero,104(sp)
    40004264:	06013c23          	sd	zero,120(sp)
    40004268:	08013423          	sd	zero,136(sp)
    4000426c:	06013823          	sd	zero,112(sp)
    40004270:	00013423          	sd	zero,8(sp)
    40004274:	01000d13          	li	s10,16
    40004278:	00023c17          	auipc	s8,0x23
    4000427c:	2c0c0c13          	addi	s8,s8,704 # 40027538 <zeroes.4539>
    40004280:	03013a83          	ld	s5,48(sp)
    40004284:	1e078ce3          	beqz	a5,40004c7c <_vfprintf_r+0xb18>
    40004288:	02500693          	li	a3,37
    4000428c:	00d79463          	bne	a5,a3,40004294 <_vfprintf_r+0x130>
    40004290:	6e80106f          	j	40005978 <_vfprintf_r+0x1814>
    40004294:	000d8413          	mv	s0,s11
    40004298:	00c0006f          	j	400042a4 <_vfprintf_r+0x140>
    4000429c:	10d78e63          	beq	a5,a3,400043b8 <_vfprintf_r+0x254>
    400042a0:	00048413          	mv	s0,s1
    400042a4:	00144783          	lbu	a5,1(s0)
    400042a8:	00140493          	addi	s1,s0,1
    400042ac:	fe0798e3          	bnez	a5,4000429c <_vfprintf_r+0x138>
    400042b0:	41b4893b          	subw	s2,s1,s11
    400042b4:	1c0904e3          	beqz	s2,40004c7c <_vfprintf_r+0xb18>
    400042b8:	12013683          	ld	a3,288(sp)
    400042bc:	11812783          	lw	a5,280(sp)
    400042c0:	01b33023          	sd	s11,0(t1)
    400042c4:	012686b3          	add	a3,a3,s2
    400042c8:	0017879b          	addiw	a5,a5,1
    400042cc:	01233423          	sd	s2,8(t1)
    400042d0:	12d13023          	sd	a3,288(sp)
    400042d4:	10f12c23          	sw	a5,280(sp)
    400042d8:	0007869b          	sext.w	a3,a5
    400042dc:	00700793          	li	a5,7
    400042e0:	01030313          	addi	t1,t1,16
    400042e4:	0ed7c063          	blt	a5,a3,400043c4 <_vfprintf_r+0x260>
    400042e8:	00813703          	ld	a4,8(sp)
    400042ec:	00144783          	lbu	a5,1(s0)
    400042f0:	00e9073b          	addw	a4,s2,a4
    400042f4:	00e13423          	sd	a4,8(sp)
    400042f8:	180782e3          	beqz	a5,40004c7c <_vfprintf_r+0xb18>
    400042fc:	00148913          	addi	s2,s1,1
    40004300:	0014c403          	lbu	s0,1(s1)
    40004304:	0c010fa3          	sb	zero,223(sp)
    40004308:	fff00b93          	li	s7,-1
    4000430c:	00000993          	li	s3,0
    40004310:	00000493          	li	s1,0
    40004314:	00900a13          	li	s4,9
    40004318:	02a00b13          	li	s6,42
    4000431c:	00030c93          	mv	s9,t1
    40004320:	00190913          	addi	s2,s2,1
    40004324:	0004041b          	sext.w	s0,s0
    40004328:	05a00693          	li	a3,90
    4000432c:	fe04079b          	addiw	a5,s0,-32
    40004330:	0007871b          	sext.w	a4,a5
    40004334:	20e6ea63          	bltu	a3,a4,40004548 <_vfprintf_r+0x3e4>
    40004338:	02079793          	slli	a5,a5,0x20
    4000433c:	00023717          	auipc	a4,0x23
    40004340:	07c70713          	addi	a4,a4,124 # 400273b8 <zeroes.4524+0x10>
    40004344:	01e7d793          	srli	a5,a5,0x1e
    40004348:	00e787b3          	add	a5,a5,a4
    4000434c:	0007a783          	lw	a5,0(a5) # 2000 <__STACKSIZE__+0x1000>
    40004350:	00e787b3          	add	a5,a5,a4
    40004354:	00078067          	jr	a5
    40004358:	0104e493          	ori	s1,s1,16
    4000435c:	0004849b          	sext.w	s1,s1
    40004360:	00094403          	lbu	s0,0(s2)
    40004364:	fbdff06f          	j	40004320 <_vfprintf_r+0x1bc>
    40004368:	00013583          	ld	a1,0(sp)
    4000436c:	03013503          	ld	a0,48(sp)
    40004370:	62c020ef          	jal	ra,4000699c <__swsetup_r>
    40004374:	00050463          	beqz	a0,4000437c <_vfprintf_r+0x218>
    40004378:	1b40206f          	j	4000652c <_vfprintf_r+0x23c8>
    4000437c:	00013783          	ld	a5,0(sp)
    40004380:	00a00693          	li	a3,10
    40004384:	0107d783          	lhu	a5,16(a5)
    40004388:	01a7f793          	andi	a5,a5,26
    4000438c:	ead798e3          	bne	a5,a3,4000423c <_vfprintf_r+0xd8>
    40004390:	00013783          	ld	a5,0(sp)
    40004394:	01279783          	lh	a5,18(a5)
    40004398:	ea07c2e3          	bltz	a5,4000423c <_vfprintf_r+0xd8>
    4000439c:	01013683          	ld	a3,16(sp)
    400043a0:	00013583          	ld	a1,0(sp)
    400043a4:	03013503          	ld	a0,48(sp)
    400043a8:	000b0613          	mv	a2,s6
    400043ac:	530020ef          	jal	ra,400068dc <__sbprintf>
    400043b0:	00a13423          	sd	a0,8(sp)
    400043b4:	0680006f          	j	4000441c <_vfprintf_r+0x2b8>
    400043b8:	41b4893b          	subw	s2,s1,s11
    400043bc:	f40900e3          	beqz	s2,400042fc <_vfprintf_r+0x198>
    400043c0:	ef9ff06f          	j	400042b8 <_vfprintf_r+0x154>
    400043c4:	00013583          	ld	a1,0(sp)
    400043c8:	11010613          	addi	a2,sp,272
    400043cc:	000a8513          	mv	a0,s5
    400043d0:	341070ef          	jal	ra,4000bf10 <__sprint_r>
    400043d4:	02051a63          	bnez	a0,40004408 <_vfprintf_r+0x2a4>
    400043d8:	19010313          	addi	t1,sp,400
    400043dc:	f0dff06f          	j	400042e8 <_vfprintf_r+0x184>
    400043e0:	00013583          	ld	a1,0(sp)
    400043e4:	11010613          	addi	a2,sp,272
    400043e8:	000a8513          	mv	a0,s5
    400043ec:	325070ef          	jal	ra,4000bf10 <__sprint_r>
    400043f0:	060502e3          	beqz	a0,40004c54 <_vfprintf_r+0xaf0>
    400043f4:	01813783          	ld	a5,24(sp)
    400043f8:	00078863          	beqz	a5,40004408 <_vfprintf_r+0x2a4>
    400043fc:	03013503          	ld	a0,48(sp)
    40004400:	00078593          	mv	a1,a5
    40004404:	3e8210ef          	jal	ra,400257ec <_free_r>
    40004408:	00013783          	ld	a5,0(sp)
    4000440c:	0107d783          	lhu	a5,16(a5)
    40004410:	0407f793          	andi	a5,a5,64
    40004414:	00078463          	beqz	a5,4000441c <_vfprintf_r+0x2b8>
    40004418:	1140206f          	j	4000652c <_vfprintf_r+0x23c8>
    4000441c:	27813083          	ld	ra,632(sp)
    40004420:	27013403          	ld	s0,624(sp)
    40004424:	00813503          	ld	a0,8(sp)
    40004428:	26813483          	ld	s1,616(sp)
    4000442c:	26013903          	ld	s2,608(sp)
    40004430:	25813983          	ld	s3,600(sp)
    40004434:	25013a03          	ld	s4,592(sp)
    40004438:	24813a83          	ld	s5,584(sp)
    4000443c:	24013b03          	ld	s6,576(sp)
    40004440:	23813b83          	ld	s7,568(sp)
    40004444:	23013c03          	ld	s8,560(sp)
    40004448:	22813c83          	ld	s9,552(sp)
    4000444c:	22013d03          	ld	s10,544(sp)
    40004450:	21813d83          	ld	s11,536(sp)
    40004454:	28010113          	addi	sp,sp,640
    40004458:	00008067          	ret
    4000445c:	01013683          	ld	a3,16(sp)
    40004460:	00025797          	auipc	a5,0x25
    40004464:	01078793          	addi	a5,a5,16 # 40029470 <finsh_name_table+0x3a8>
    40004468:	04f13823          	sd	a5,80(sp)
    4000446c:	0204f793          	andi	a5,s1,32
    40004470:	000c8313          	mv	t1,s9
    40004474:	00868713          	addi	a4,a3,8
    40004478:	10078863          	beqz	a5,40004588 <_vfprintf_r+0x424>
    4000447c:	0006bb03          	ld	s6,0(a3)
    40004480:	0014f793          	andi	a5,s1,1
    40004484:	00078e63          	beqz	a5,400044a0 <_vfprintf_r+0x33c>
    40004488:	000b0c63          	beqz	s6,400044a0 <_vfprintf_r+0x33c>
    4000448c:	0024e493          	ori	s1,s1,2
    40004490:	03000793          	li	a5,48
    40004494:	0ef10023          	sb	a5,224(sp)
    40004498:	0e8100a3          	sb	s0,225(sp)
    4000449c:	0004849b          	sext.w	s1,s1
    400044a0:	bff4f813          	andi	a6,s1,-1025
    400044a4:	00080a1b          	sext.w	s4,a6
    400044a8:	00e13823          	sd	a4,16(sp)
    400044ac:	00200793          	li	a5,2
    400044b0:	0c010fa3          	sb	zero,223(sp)
    400044b4:	fff00713          	li	a4,-1
    400044b8:	5eeb8e63          	beq	s7,a4,40004ab4 <_vfprintf_r+0x950>
    400044bc:	f7fa7493          	andi	s1,s4,-129
    400044c0:	0004849b          	sext.w	s1,s1
    400044c4:	6c0b16e3          	bnez	s6,40005390 <_vfprintf_r+0x122c>
    400044c8:	000b8463          	beqz	s7,400044d0 <_vfprintf_r+0x36c>
    400044cc:	0bc0106f          	j	40005588 <_vfprintf_r+0x1424>
    400044d0:	52079663          	bnez	a5,400049fc <_vfprintf_r+0x898>
    400044d4:	001a7c93          	andi	s9,s4,1
    400044d8:	18c10d93          	addi	s11,sp,396
    400044dc:	000c8463          	beqz	s9,400044e4 <_vfprintf_r+0x380>
    400044e0:	2f40106f          	j	400057d4 <_vfprintf_r+0x1670>
    400044e4:	000c8a1b          	sext.w	s4,s9
    400044e8:	017cd463          	bge	s9,s7,400044f0 <_vfprintf_r+0x38c>
    400044ec:	000b8a1b          	sext.w	s4,s7
    400044f0:	0df14783          	lbu	a5,223(sp)
    400044f4:	00013c23          	sd	zero,24(sp)
    400044f8:	04013023          	sd	zero,64(sp)
    400044fc:	02013c23          	sd	zero,56(sp)
    40004500:	02013023          	sd	zero,32(sp)
    40004504:	64078663          	beqz	a5,40004b50 <_vfprintf_r+0x9ec>
    40004508:	001a0a1b          	addiw	s4,s4,1
    4000450c:	6440006f          	j	40004b50 <_vfprintf_r+0x9ec>
    40004510:	00000993          	li	s3,0
    40004514:	00190913          	addi	s2,s2,1
    40004518:	fff94703          	lbu	a4,-1(s2)
    4000451c:	0029979b          	slliw	a5,s3,0x2
    40004520:	013787bb          	addw	a5,a5,s3
    40004524:	fd04041b          	addiw	s0,s0,-48
    40004528:	0017979b          	slliw	a5,a5,0x1
    4000452c:	fd07061b          	addiw	a2,a4,-48
    40004530:	00f409bb          	addw	s3,s0,a5
    40004534:	0007041b          	sext.w	s0,a4
    40004538:	fcca7ee3          	bgeu	s4,a2,40004514 <_vfprintf_r+0x3b0>
    4000453c:	fe04079b          	addiw	a5,s0,-32
    40004540:	0007871b          	sext.w	a4,a5
    40004544:	dee6fae3          	bgeu	a3,a4,40004338 <_vfprintf_r+0x1d4>
    40004548:	000c8313          	mv	t1,s9
    4000454c:	72040863          	beqz	s0,40004c7c <_vfprintf_r+0xb18>
    40004550:	12810423          	sb	s0,296(sp)
    40004554:	0c010fa3          	sb	zero,223(sp)
    40004558:	00100a13          	li	s4,1
    4000455c:	00100c93          	li	s9,1
    40004560:	12810d93          	addi	s11,sp,296
    40004564:	5d80006f          	j	40004b3c <_vfprintf_r+0x9d8>
    40004568:	01013683          	ld	a3,16(sp)
    4000456c:	00025797          	auipc	a5,0x25
    40004570:	f1c78793          	addi	a5,a5,-228 # 40029488 <finsh_name_table+0x3c0>
    40004574:	04f13823          	sd	a5,80(sp)
    40004578:	0204f793          	andi	a5,s1,32
    4000457c:	000c8313          	mv	t1,s9
    40004580:	00868713          	addi	a4,a3,8
    40004584:	ee079ce3          	bnez	a5,4000447c <_vfprintf_r+0x318>
    40004588:	0104f793          	andi	a5,s1,16
    4000458c:	00078463          	beqz	a5,40004594 <_vfprintf_r+0x430>
    40004590:	26c0106f          	j	400057fc <_vfprintf_r+0x1698>
    40004594:	01013683          	ld	a3,16(sp)
    40004598:	0404f793          	andi	a5,s1,64
    4000459c:	0006ab03          	lw	s6,0(a3)
    400045a0:	00079463          	bnez	a5,400045a8 <_vfprintf_r+0x444>
    400045a4:	66c0106f          	j	40005c10 <_vfprintf_r+0x1aac>
    400045a8:	030b1b13          	slli	s6,s6,0x30
    400045ac:	030b5b13          	srli	s6,s6,0x30
    400045b0:	ed1ff06f          	j	40004480 <_vfprintf_r+0x31c>
    400045b4:	00094403          	lbu	s0,0(s2)
    400045b8:	0044e493          	ori	s1,s1,4
    400045bc:	0004849b          	sext.w	s1,s1
    400045c0:	d61ff06f          	j	40004320 <_vfprintf_r+0x1bc>
    400045c4:	00094403          	lbu	s0,0(s2)
    400045c8:	06800793          	li	a5,104
    400045cc:	00f41463          	bne	s0,a5,400045d4 <_vfprintf_r+0x470>
    400045d0:	2e40106f          	j	400058b4 <_vfprintf_r+0x1750>
    400045d4:	0404e493          	ori	s1,s1,64
    400045d8:	0004849b          	sext.w	s1,s1
    400045dc:	d45ff06f          	j	40004320 <_vfprintf_r+0x1bc>
    400045e0:	0084f793          	andi	a5,s1,8
    400045e4:	000c8313          	mv	t1,s9
    400045e8:	00079463          	bnez	a5,400045f0 <_vfprintf_r+0x48c>
    400045ec:	22c0106f          	j	40005818 <_vfprintf_r+0x16b4>
    400045f0:	01013783          	ld	a5,16(sp)
    400045f4:	00f78793          	addi	a5,a5,15
    400045f8:	ff07f793          	andi	a5,a5,-16
    400045fc:	0007b683          	ld	a3,0(a5)
    40004600:	0087b703          	ld	a4,8(a5)
    40004604:	01078793          	addi	a5,a5,16
    40004608:	00f13823          	sd	a5,16(sp)
    4000460c:	10d13023          	sd	a3,256(sp)
    40004610:	10e13423          	sd	a4,264(sp)
    40004614:	10010513          	addi	a0,sp,256
    40004618:	00613c23          	sd	t1,24(sp)
    4000461c:	050050ef          	jal	ra,4000966c <_ldcheck>
    40004620:	0ea12423          	sw	a0,232(sp)
    40004624:	00200793          	li	a5,2
    40004628:	01813303          	ld	t1,24(sp)
    4000462c:	00f51463          	bne	a0,a5,40004634 <_vfprintf_r+0x4d0>
    40004630:	4e40106f          	j	40005b14 <_vfprintf_r+0x19b0>
    40004634:	00100793          	li	a5,1
    40004638:	00f51463          	bne	a0,a5,40004640 <_vfprintf_r+0x4dc>
    4000463c:	5e40106f          	j	40005c20 <_vfprintf_r+0x1abc>
    40004640:	06100793          	li	a5,97
    40004644:	00f41463          	bne	s0,a5,4000464c <_vfprintf_r+0x4e8>
    40004648:	7fd0106f          	j	40006644 <_vfprintf_r+0x24e0>
    4000464c:	04100793          	li	a5,65
    40004650:	00f41463          	bne	s0,a5,40004658 <_vfprintf_r+0x4f4>
    40004654:	12d0106f          	j	40005f80 <_vfprintf_r+0x1e1c>
    40004658:	fdf47713          	andi	a4,s0,-33
    4000465c:	fff00793          	li	a5,-1
    40004660:	02e13c23          	sd	a4,56(sp)
    40004664:	00fb9463          	bne	s7,a5,4000466c <_vfprintf_r+0x508>
    40004668:	7fd0106f          	j	40006664 <_vfprintf_r+0x2500>
    4000466c:	04700793          	li	a5,71
    40004670:	00f71463          	bne	a4,a5,40004678 <_vfprintf_r+0x514>
    40004674:	7e10106f          	j	40006654 <_vfprintf_r+0x24f0>
    40004678:	10813c83          	ld	s9,264(sp)
    4000467c:	1004e793          	ori	a5,s1,256
    40004680:	04913023          	sd	s1,64(sp)
    40004684:	0007879b          	sext.w	a5,a5
    40004688:	10013e83          	ld	t4,256(sp)
    4000468c:	000cd463          	bgez	s9,40004694 <_vfprintf_r+0x530>
    40004690:	4c10106f          	j	40006350 <_vfprintf_r+0x21ec>
    40004694:	06013023          	sd	zero,96(sp)
    40004698:	00078493          	mv	s1,a5
    4000469c:	00013c23          	sd	zero,24(sp)
    400046a0:	03813703          	ld	a4,56(sp)
    400046a4:	04600793          	li	a5,70
    400046a8:	00f71463          	bne	a4,a5,400046b0 <_vfprintf_r+0x54c>
    400046ac:	4050106f          	j	400062b0 <_vfprintf_r+0x214c>
    400046b0:	04500793          	li	a5,69
    400046b4:	02613423          	sd	t1,40(sp)
    400046b8:	00f71463          	bne	a4,a5,400046c0 <_vfprintf_r+0x55c>
    400046bc:	7250106f          	j	400065e0 <_vfprintf_r+0x247c>
    400046c0:	0e810793          	addi	a5,sp,232
    400046c4:	000b8713          	mv	a4,s7
    400046c8:	000e8593          	mv	a1,t4
    400046cc:	0f810893          	addi	a7,sp,248
    400046d0:	0ec10813          	addi	a6,sp,236
    400046d4:	00200693          	li	a3,2
    400046d8:	000c8613          	mv	a2,s9
    400046dc:	000a8513          	mv	a0,s5
    400046e0:	03d13023          	sd	t4,32(sp)
    400046e4:	469030ef          	jal	ra,4000834c <_ldtoa_r>
    400046e8:	03813703          	ld	a4,56(sp)
    400046ec:	04700793          	li	a5,71
    400046f0:	00050d93          	mv	s11,a0
    400046f4:	02013e83          	ld	t4,32(sp)
    400046f8:	02813303          	ld	t1,40(sp)
    400046fc:	00f70463          	beq	a4,a5,40004704 <_vfprintf_r+0x5a0>
    40004700:	1a80206f          	j	400068a8 <_vfprintf_r+0x2744>
    40004704:	04013783          	ld	a5,64(sp)
    40004708:	01750a33          	add	s4,a0,s7
    4000470c:	0017f793          	andi	a5,a5,1
    40004710:	00078463          	beqz	a5,40004718 <_vfprintf_r+0x5b4>
    40004714:	3ed0106f          	j	40006300 <_vfprintf_r+0x219c>
    40004718:	0f813783          	ld	a5,248(sp)
    4000471c:	41b787bb          	subw	a5,a5,s11
    40004720:	02f13423          	sd	a5,40(sp)
    40004724:	0e812703          	lw	a4,232(sp)
    40004728:	04700793          	li	a5,71
    4000472c:	02e13023          	sd	a4,32(sp)
    40004730:	03813703          	ld	a4,56(sp)
    40004734:	00f71463          	bne	a4,a5,4000473c <_vfprintf_r+0x5d8>
    40004738:	2ed0106f          	j	40006224 <_vfprintf_r+0x20c0>
    4000473c:	03813703          	ld	a4,56(sp)
    40004740:	04600793          	li	a5,70
    40004744:	00f71463          	bne	a4,a5,4000474c <_vfprintf_r+0x5e8>
    40004748:	5550106f          	j	4000649c <_vfprintf_r+0x2338>
    4000474c:	02013783          	ld	a5,32(sp)
    40004750:	03813703          	ld	a4,56(sp)
    40004754:	04100613          	li	a2,65
    40004758:	fff78a1b          	addiw	s4,a5,-1
    4000475c:	0f412423          	sw	s4,232(sp)
    40004760:	0ff47793          	andi	a5,s0,255
    40004764:	00000693          	li	a3,0
    40004768:	00c71863          	bne	a4,a2,40004778 <_vfprintf_r+0x614>
    4000476c:	00f7879b          	addiw	a5,a5,15
    40004770:	0ff7f793          	andi	a5,a5,255
    40004774:	00100693          	li	a3,1
    40004778:	0ef10823          	sb	a5,240(sp)
    4000477c:	02b00793          	li	a5,43
    40004780:	000a5a63          	bgez	s4,40004794 <_vfprintf_r+0x630>
    40004784:	02013783          	ld	a5,32(sp)
    40004788:	00100a13          	li	s4,1
    4000478c:	40fa0a3b          	subw	s4,s4,a5
    40004790:	02d00793          	li	a5,45
    40004794:	0ef108a3          	sb	a5,241(sp)
    40004798:	00900793          	li	a5,9
    4000479c:	0147c463          	blt	a5,s4,400047a4 <_vfprintf_r+0x640>
    400047a0:	0280206f          	j	400067c8 <_vfprintf_r+0x2664>
    400047a4:	0ff10b13          	addi	s6,sp,255
    400047a8:	000b0c93          	mv	s9,s6
    400047ac:	06300493          	li	s1,99
    400047b0:	00030b93          	mv	s7,t1
    400047b4:	00c0006f          	j	400047c0 <_vfprintf_r+0x65c>
    400047b8:	00060c93          	mv	s9,a2
    400047bc:	00050a13          	mv	s4,a0
    400047c0:	00a00593          	li	a1,10
    400047c4:	000a0513          	mv	a0,s4
    400047c8:	1d40b0ef          	jal	ra,4000f99c <__moddi3>
    400047cc:	0305051b          	addiw	a0,a0,48
    400047d0:	feac8fa3          	sb	a0,-1(s9)
    400047d4:	00a00593          	li	a1,10
    400047d8:	000a0513          	mv	a0,s4
    400047dc:	13c0b0ef          	jal	ra,4000f918 <__divdi3>
    400047e0:	fffc8613          	addi	a2,s9,-1
    400047e4:	0005051b          	sext.w	a0,a0
    400047e8:	fd44c8e3          	blt	s1,s4,400047b8 <_vfprintf_r+0x654>
    400047ec:	0305079b          	addiw	a5,a0,48
    400047f0:	0ff7f793          	andi	a5,a5,255
    400047f4:	ffec8693          	addi	a3,s9,-2
    400047f8:	fef60fa3          	sb	a5,-1(a2)
    400047fc:	000b8313          	mv	t1,s7
    40004800:	0166e463          	bltu	a3,s6,40004808 <_vfprintf_r+0x6a4>
    40004804:	0b00206f          	j	400068b4 <_vfprintf_r+0x2750>
    40004808:	0f210613          	addi	a2,sp,242
    4000480c:	0080006f          	j	40004814 <_vfprintf_r+0x6b0>
    40004810:	0006c783          	lbu	a5,0(a3)
    40004814:	00160613          	addi	a2,a2,1
    40004818:	00168693          	addi	a3,a3,1
    4000481c:	fef60fa3          	sb	a5,-1(a2)
    40004820:	ff6698e3          	bne	a3,s6,40004810 <_vfprintf_r+0x6ac>
    40004824:	10110793          	addi	a5,sp,257
    40004828:	419787b3          	sub	a5,a5,s9
    4000482c:	0f210713          	addi	a4,sp,242
    40004830:	00f707b3          	add	a5,a4,a5
    40004834:	0f010693          	addi	a3,sp,240
    40004838:	40d787bb          	subw	a5,a5,a3
    4000483c:	06f13423          	sd	a5,104(sp)
    40004840:	06813783          	ld	a5,104(sp)
    40004844:	02813703          	ld	a4,40(sp)
    40004848:	00100693          	li	a3,1
    4000484c:	00f70cbb          	addw	s9,a4,a5
    40004850:	000c8793          	mv	a5,s9
    40004854:	00e6c463          	blt	a3,a4,4000485c <_vfprintf_r+0x6f8>
    40004858:	7c10106f          	j	40006818 <_vfprintf_r+0x26b4>
    4000485c:	04813703          	ld	a4,72(sp)
    40004860:	00e78cbb          	addw	s9,a5,a4
    40004864:	04013783          	ld	a5,64(sp)
    40004868:	fffcca13          	not	s4,s9
    4000486c:	43fa5a13          	srai	s4,s4,0x3f
    40004870:	bff7f493          	andi	s1,a5,-1025
    40004874:	0004849b          	sext.w	s1,s1
    40004878:	014cfa33          	and	s4,s9,s4
    4000487c:	1004e493          	ori	s1,s1,256
    40004880:	000a0a1b          	sext.w	s4,s4
    40004884:	04013023          	sd	zero,64(sp)
    40004888:	02013c23          	sd	zero,56(sp)
    4000488c:	02013023          	sd	zero,32(sp)
    40004890:	06013783          	ld	a5,96(sp)
    40004894:	00079463          	bnez	a5,4000489c <_vfprintf_r+0x738>
    40004898:	2050106f          	j	4000629c <_vfprintf_r+0x2138>
    4000489c:	02d00793          	li	a5,45
    400048a0:	0cf10fa3          	sb	a5,223(sp)
    400048a4:	00000b93          	li	s7,0
    400048a8:	001a0a1b          	addiw	s4,s4,1
    400048ac:	2a40006f          	j	40004b50 <_vfprintf_r+0x9ec>
    400048b0:	01013783          	ld	a5,16(sp)
    400048b4:	0104e813          	ori	a6,s1,16
    400048b8:	000c8313          	mv	t1,s9
    400048bc:	00080a1b          	sext.w	s4,a6
    400048c0:	00878713          	addi	a4,a5,8
    400048c4:	01013783          	ld	a5,16(sp)
    400048c8:	0007bb03          	ld	s6,0(a5)
    400048cc:	00100793          	li	a5,1
    400048d0:	00e13823          	sd	a4,16(sp)
    400048d4:	bddff06f          	j	400044b0 <_vfprintf_r+0x34c>
    400048d8:	01013783          	ld	a5,16(sp)
    400048dc:	0c010fa3          	sb	zero,223(sp)
    400048e0:	000c8313          	mv	t1,s9
    400048e4:	0007bd83          	ld	s11,0(a5)
    400048e8:	00878b13          	addi	s6,a5,8
    400048ec:	000d9463          	bnez	s11,400048f4 <_vfprintf_r+0x790>
    400048f0:	7fd0006f          	j	400058ec <_vfprintf_r+0x1788>
    400048f4:	fff00793          	li	a5,-1
    400048f8:	00fb9463          	bne	s7,a5,40004900 <_vfprintf_r+0x79c>
    400048fc:	2780106f          	j	40005b74 <_vfprintf_r+0x1a10>
    40004900:	000b8613          	mv	a2,s7
    40004904:	00000593          	li	a1,0
    40004908:	000d8513          	mv	a0,s11
    4000490c:	01913823          	sd	s9,16(sp)
    40004910:	6e9040ef          	jal	ra,400097f8 <memchr>
    40004914:	00a13c23          	sd	a0,24(sp)
    40004918:	01013303          	ld	t1,16(sp)
    4000491c:	00051463          	bnez	a0,40004924 <_vfprintf_r+0x7c0>
    40004920:	2e90106f          	j	40006408 <_vfprintf_r+0x22a4>
    40004924:	01813783          	ld	a5,24(sp)
    40004928:	01613823          	sd	s6,16(sp)
    4000492c:	00013c23          	sd	zero,24(sp)
    40004930:	41b78cbb          	subw	s9,a5,s11
    40004934:	fffcca13          	not	s4,s9
    40004938:	0df14783          	lbu	a5,223(sp)
    4000493c:	43fa5a13          	srai	s4,s4,0x3f
    40004940:	014cfa33          	and	s4,s9,s4
    40004944:	04013023          	sd	zero,64(sp)
    40004948:	02013c23          	sd	zero,56(sp)
    4000494c:	02013023          	sd	zero,32(sp)
    40004950:	000a0a1b          	sext.w	s4,s4
    40004954:	00000b93          	li	s7,0
    40004958:	ba0798e3          	bnez	a5,40004508 <_vfprintf_r+0x3a4>
    4000495c:	1f40006f          	j	40004b50 <_vfprintf_r+0x9ec>
    40004960:	01013703          	ld	a4,16(sp)
    40004964:	0104e813          	ori	a6,s1,16
    40004968:	000c8313          	mv	t1,s9
    4000496c:	0008049b          	sext.w	s1,a6
    40004970:	00870713          	addi	a4,a4,8
    40004974:	01013783          	ld	a5,16(sp)
    40004978:	0007bb03          	ld	s6,0(a5)
    4000497c:	00e13823          	sd	a4,16(sp)
    40004980:	bff4f813          	andi	a6,s1,-1025
    40004984:	00080a1b          	sext.w	s4,a6
    40004988:	00000793          	li	a5,0
    4000498c:	b25ff06f          	j	400044b0 <_vfprintf_r+0x34c>
    40004990:	0084e493          	ori	s1,s1,8
    40004994:	0004849b          	sext.w	s1,s1
    40004998:	00094403          	lbu	s0,0(s2)
    4000499c:	985ff06f          	j	40004320 <_vfprintf_r+0x1bc>
    400049a0:	01013703          	ld	a4,16(sp)
    400049a4:	0204f793          	andi	a5,s1,32
    400049a8:	000c8313          	mv	t1,s9
    400049ac:	00870713          	addi	a4,a4,8
    400049b0:	660790e3          	bnez	a5,40005810 <_vfprintf_r+0x16ac>
    400049b4:	0104f793          	andi	a5,s1,16
    400049b8:	64079ce3          	bnez	a5,40005810 <_vfprintf_r+0x16ac>
    400049bc:	0404f793          	andi	a5,s1,64
    400049c0:	00079463          	bnez	a5,400049c8 <_vfprintf_r+0x864>
    400049c4:	22c0106f          	j	40005bf0 <_vfprintf_r+0x1a8c>
    400049c8:	01013783          	ld	a5,16(sp)
    400049cc:	00048a13          	mv	s4,s1
    400049d0:	00e13823          	sd	a4,16(sp)
    400049d4:	00079b03          	lh	s6,0(a5)
    400049d8:	000b0793          	mv	a5,s6
    400049dc:	0c07c063          	bltz	a5,40004a9c <_vfprintf_r+0x938>
    400049e0:	fff00793          	li	a5,-1
    400049e4:	56fb8063          	beq	s7,a5,40004f44 <_vfprintf_r+0xde0>
    400049e8:	f7fa7813          	andi	a6,s4,-129
    400049ec:	0008049b          	sext.w	s1,a6
    400049f0:	540b1863          	bnez	s6,40004f40 <_vfprintf_r+0xddc>
    400049f4:	000b8463          	beqz	s7,400049fc <_vfprintf_r+0x898>
    400049f8:	7f80106f          	j	400061f0 <_vfprintf_r+0x208c>
    400049fc:	00000b93          	li	s7,0
    40004a00:	00000c93          	li	s9,0
    40004a04:	18c10d93          	addi	s11,sp,396
    40004a08:	addff06f          	j	400044e4 <_vfprintf_r+0x380>
    40004a0c:	02b00793          	li	a5,43
    40004a10:	0cf10fa3          	sb	a5,223(sp)
    40004a14:	00094403          	lbu	s0,0(s2)
    40004a18:	909ff06f          	j	40004320 <_vfprintf_r+0x1bc>
    40004a1c:	0804e493          	ori	s1,s1,128
    40004a20:	0004849b          	sext.w	s1,s1
    40004a24:	00094403          	lbu	s0,0(s2)
    40004a28:	8f9ff06f          	j	40004320 <_vfprintf_r+0x1bc>
    40004a2c:	00094403          	lbu	s0,0(s2)
    40004a30:	00190793          	addi	a5,s2,1
    40004a34:	01641463          	bne	s0,s6,40004a3c <_vfprintf_r+0x8d8>
    40004a38:	6390106f          	j	40006870 <_vfprintf_r+0x270c>
    40004a3c:	fd04071b          	addiw	a4,s0,-48
    40004a40:	00078913          	mv	s2,a5
    40004a44:	00000b93          	li	s7,0
    40004a48:	8eea62e3          	bltu	s4,a4,4000432c <_vfprintf_r+0x1c8>
    40004a4c:	00190913          	addi	s2,s2,1
    40004a50:	002b979b          	slliw	a5,s7,0x2
    40004a54:	fff94603          	lbu	a2,-1(s2)
    40004a58:	017787bb          	addw	a5,a5,s7
    40004a5c:	0017979b          	slliw	a5,a5,0x1
    40004a60:	00e78bbb          	addw	s7,a5,a4
    40004a64:	fd06071b          	addiw	a4,a2,-48
    40004a68:	feea72e3          	bgeu	s4,a4,40004a4c <_vfprintf_r+0x8e8>
    40004a6c:	00060413          	mv	s0,a2
    40004a70:	8bdff06f          	j	4000432c <_vfprintf_r+0x1c8>
    40004a74:	01013783          	ld	a5,16(sp)
    40004a78:	0104e813          	ori	a6,s1,16
    40004a7c:	000c8313          	mv	t1,s9
    40004a80:	00080a1b          	sext.w	s4,a6
    40004a84:	00878713          	addi	a4,a5,8
    40004a88:	01013783          	ld	a5,16(sp)
    40004a8c:	0007b783          	ld	a5,0(a5)
    40004a90:	00e13823          	sd	a4,16(sp)
    40004a94:	00078b13          	mv	s6,a5
    40004a98:	f407d4e3          	bgez	a5,400049e0 <_vfprintf_r+0x87c>
    40004a9c:	02d00793          	li	a5,45
    40004aa0:	0cf10fa3          	sb	a5,223(sp)
    40004aa4:	fff00713          	li	a4,-1
    40004aa8:	41600b33          	neg	s6,s6
    40004aac:	00100793          	li	a5,1
    40004ab0:	a0eb96e3          	bne	s7,a4,400044bc <_vfprintf_r+0x358>
    40004ab4:	00100713          	li	a4,1
    40004ab8:	48e78663          	beq	a5,a4,40004f44 <_vfprintf_r+0xde0>
    40004abc:	00200713          	li	a4,2
    40004ac0:	2ce78ee3          	beq	a5,a4,4000559c <_vfprintf_r+0x1438>
    40004ac4:	18c10c93          	addi	s9,sp,396
    40004ac8:	000c8693          	mv	a3,s9
    40004acc:	0080006f          	j	40004ad4 <_vfprintf_r+0x970>
    40004ad0:	000d8693          	mv	a3,s11
    40004ad4:	007b7793          	andi	a5,s6,7
    40004ad8:	03078793          	addi	a5,a5,48
    40004adc:	fef68fa3          	sb	a5,-1(a3)
    40004ae0:	003b5b13          	srli	s6,s6,0x3
    40004ae4:	fff68d93          	addi	s11,a3,-1
    40004ae8:	fe0b14e3          	bnez	s6,40004ad0 <_vfprintf_r+0x96c>
    40004aec:	001a7613          	andi	a2,s4,1
    40004af0:	4a060463          	beqz	a2,40004f98 <_vfprintf_r+0xe34>
    40004af4:	03000613          	li	a2,48
    40004af8:	4ac78063          	beq	a5,a2,40004f98 <_vfprintf_r+0xe34>
    40004afc:	ffe68693          	addi	a3,a3,-2
    40004b00:	fecd8fa3          	sb	a2,-1(s11)
    40004b04:	40dc8cbb          	subw	s9,s9,a3
    40004b08:	000a0493          	mv	s1,s4
    40004b0c:	00068d93          	mv	s11,a3
    40004b10:	9d5ff06f          	j	400044e4 <_vfprintf_r+0x380>
    40004b14:	01013703          	ld	a4,16(sp)
    40004b18:	000c8313          	mv	t1,s9
    40004b1c:	0c010fa3          	sb	zero,223(sp)
    40004b20:	00072783          	lw	a5,0(a4)
    40004b24:	00870713          	addi	a4,a4,8
    40004b28:	00e13823          	sd	a4,16(sp)
    40004b2c:	12f10423          	sb	a5,296(sp)
    40004b30:	00100a13          	li	s4,1
    40004b34:	00100c93          	li	s9,1
    40004b38:	12810d93          	addi	s11,sp,296
    40004b3c:	00013c23          	sd	zero,24(sp)
    40004b40:	00000b93          	li	s7,0
    40004b44:	04013023          	sd	zero,64(sp)
    40004b48:	02013c23          	sd	zero,56(sp)
    40004b4c:	02013023          	sd	zero,32(sp)
    40004b50:	0024fe93          	andi	t4,s1,2
    40004b54:	000e8e9b          	sext.w	t4,t4
    40004b58:	000e8463          	beqz	t4,40004b60 <_vfprintf_r+0x9fc>
    40004b5c:	002a0a1b          	addiw	s4,s4,2
    40004b60:	0844ff13          	andi	t5,s1,132
    40004b64:	12013783          	ld	a5,288(sp)
    40004b68:	000f1663          	bnez	t5,40004b74 <_vfprintf_r+0xa10>
    40004b6c:	4149883b          	subw	a6,s3,s4
    40004b70:	030044e3          	bgtz	a6,40005398 <_vfprintf_r+0x1234>
    40004b74:	0df14683          	lbu	a3,223(sp)
    40004b78:	02068c63          	beqz	a3,40004bb0 <_vfprintf_r+0xa4c>
    40004b7c:	11812683          	lw	a3,280(sp)
    40004b80:	0df10613          	addi	a2,sp,223
    40004b84:	00c33023          	sd	a2,0(t1)
    40004b88:	0016869b          	addiw	a3,a3,1
    40004b8c:	00100613          	li	a2,1
    40004b90:	00178793          	addi	a5,a5,1
    40004b94:	00c33423          	sd	a2,8(t1)
    40004b98:	10d12c23          	sw	a3,280(sp)
    40004b9c:	0006861b          	sext.w	a2,a3
    40004ba0:	12f13023          	sd	a5,288(sp)
    40004ba4:	00700693          	li	a3,7
    40004ba8:	01030313          	addi	t1,t1,16
    40004bac:	0ec6c663          	blt	a3,a2,40004c98 <_vfprintf_r+0xb34>
    40004bb0:	020e8c63          	beqz	t4,40004be8 <_vfprintf_r+0xa84>
    40004bb4:	11812683          	lw	a3,280(sp)
    40004bb8:	0e010613          	addi	a2,sp,224
    40004bbc:	00c33023          	sd	a2,0(t1)
    40004bc0:	0016869b          	addiw	a3,a3,1
    40004bc4:	00200613          	li	a2,2
    40004bc8:	00278793          	addi	a5,a5,2
    40004bcc:	00c33423          	sd	a2,8(t1)
    40004bd0:	10d12c23          	sw	a3,280(sp)
    40004bd4:	0006861b          	sext.w	a2,a3
    40004bd8:	12f13023          	sd	a5,288(sp)
    40004bdc:	00700693          	li	a3,7
    40004be0:	01030313          	addi	t1,t1,16
    40004be4:	0cc6c4e3          	blt	a3,a2,400054ac <_vfprintf_r+0x1348>
    40004be8:	08000693          	li	a3,128
    40004bec:	4edf0063          	beq	t5,a3,400050cc <_vfprintf_r+0xf68>
    40004bf0:	419b8bbb          	subw	s7,s7,s9
    40004bf4:	5b704e63          	bgtz	s7,400051b0 <_vfprintf_r+0x104c>
    40004bf8:	1004f693          	andi	a3,s1,256
    40004bfc:	3a069463          	bnez	a3,40004fa4 <_vfprintf_r+0xe40>
    40004c00:	11812703          	lw	a4,280(sp)
    40004c04:	019787b3          	add	a5,a5,s9
    40004c08:	01b33023          	sd	s11,0(t1)
    40004c0c:	0017069b          	addiw	a3,a4,1
    40004c10:	01933423          	sd	s9,8(t1)
    40004c14:	12f13023          	sd	a5,288(sp)
    40004c18:	10d12c23          	sw	a3,280(sp)
    40004c1c:	00700713          	li	a4,7
    40004c20:	12d74463          	blt	a4,a3,40004d48 <_vfprintf_r+0xbe4>
    40004c24:	01030313          	addi	t1,t1,16
    40004c28:	0044f493          	andi	s1,s1,4
    40004c2c:	00048663          	beqz	s1,40004c38 <_vfprintf_r+0xad4>
    40004c30:	4149843b          	subw	s0,s3,s4
    40004c34:	0a8042e3          	bgtz	s0,400054d8 <_vfprintf_r+0x1374>
    40004c38:	00098713          	mv	a4,s3
    40004c3c:	0149d463          	bge	s3,s4,40004c44 <_vfprintf_r+0xae0>
    40004c40:	000a0713          	mv	a4,s4
    40004c44:	00813683          	ld	a3,8(sp)
    40004c48:	00d7073b          	addw	a4,a4,a3
    40004c4c:	00e13423          	sd	a4,8(sp)
    40004c50:	f8079863          	bnez	a5,400043e0 <_vfprintf_r+0x27c>
    40004c54:	01813783          	ld	a5,24(sp)
    40004c58:	10012c23          	sw	zero,280(sp)
    40004c5c:	00078863          	beqz	a5,40004c6c <_vfprintf_r+0xb08>
